///////////////////////////////////////////////////////////////////////////////
//                                                                            /
// IAR C/C++ Compiler V8.20.1.40829 for 8051            18/Jun/2014  16:46:22 /
// Copyright 2004-2012 IAR Systems AB.                                        /
//                                                                            /
//    Core               =  plain                                             /
//    Code model         =  banked                                            /
//    Data model         =  large                                             /
//    Calling convention =  xdata reentrant                                   /
//    Constant location  =  data_rom                                          /
//    Dptr setup         =  1,16                                              /
//                                                                            /
//    Source file        =  D:\NTHU\¬ã¨s\Important\ThesisCode\Code\GitLabClou /
//                          d\NewEcoExec\codegenerator\Device\EcoBT\Component /
//                          s\hal\target\CC2540EB\hal_key.c                   /
//    Command line       =  -f D:\NTHU\¬ã¨s\Important\ThesisCode\Code\GitLabC /
//                          loud\NewEcoExec\codegenerator\Device\EcoBT\Projec /
//                          t\ble\CodeGenerator\CC2540DB\..\..\config\buildCo /
//                          mponents.cfg (-DBROADCASTER_CFG=0x01              /
//                          -DOBSERVER_CFG=0x02 -DPERIPHERAL_CFG=0x04         /
//                          -DCENTRAL_CFG=0x08 -DADV_NCONN_CFG=0x01           /
//                          -DADV_CONN_CFG=0x02 -DSCAN_CFG=0x04               /
//                          -DINIT_CFG=0x08 -DADV_CFG=ADV_NCONN_CFG+ADV_CONN_ /
//                          CFG -DLINK_CFG=ADV_CONN_CFG+INIT_CFG              /
//                          -DFULL_CFG=INIT_CFG+SCAN_CFG+ADV_NCONN_CFG+ADV_CO /
//                          NN_CFG) -f D:\NTHU\¬ã¨s\Important\ThesisCode\Code /
//                          \GitLabCloud\NewEcoExec\codegenerator\Device\EcoB /
//                          T\Project\ble\CodeGenerator\CC2540DB\buildConfig. /
//                          cfg (-DHOST_CONFIG=PERIPHERAL_CFG                 /
//                          -DGAP_PRIVACY_RECONNECT)                          /
//                          D:\NTHU\¬ã¨s\Important\ThesisCode\Code\GitLabClou /
//                          d\NewEcoExec\codegenerator\Device\EcoBT\Component /
//                          s\hal\target\CC2540EB\hal_key.c -D                /
//                          INT_HEAP_LEN=900 -D HALNODEBUG -D                 /
//                          OSAL_CBTIMER_NUM_TASKS=1 -D HAL_AES_DMA=TRUE -D   /
//                          HAL_DMA=TRUE -D xPOWER_SAVING -D                  /
//                          xPLUS_BROADCASTER -D HAL_LCD=FALSE -D             /
//                          HAL_LED=TRUE -D HAL_ADC=TRUE -lB                  /
//                          D:\NTHU\¬ã¨s\Important\ThesisCode\Code\GitLabClou /
//                          d\NewEcoExec\codegenerator\Device\EcoBT\Project\b /
//                          le\CodeGenerator\CC2540DB\CC2540\List\ -o         /
//                          D:\NTHU\¬ã¨s\Important\ThesisCode\Code\GitLabClou /
//                          d\NewEcoExec\codegenerator\Device\EcoBT\Project\b /
//                          le\CodeGenerator\CC2540DB\CC2540\Obj\ -e --debug  /
//                          --core=plain --dptr=16,1 --data_model=large       /
//                          --code_model=banked --calling_convention=xdata_re /
//                          entrant --place_constants=data_rom                /
//                          --nr_virtual_regs 16 -I                           /
//                          D:\NTHU\¬ã¨s\Important\ThesisCode\Code\GitLabClou /
//                          d\NewEcoExec\codegenerator\Device\EcoBT\Project\b /
//                          le\CodeGenerator\CC2540DB\..\..\common\ -I        /
//                          D:\NTHU\¬ã¨s\Important\ThesisCode\Code\GitLabClou /
//                          d\NewEcoExec\codegenerator\Device\EcoBT\Project\b /
//                          le\CodeGenerator\CC2540DB\..\..\include\ -I       /
//                          D:\NTHU\¬ã¨s\Important\ThesisCode\Code\GitLabClou /
//                          d\NewEcoExec\codegenerator\Device\EcoBT\Project\b /
//                          le\CodeGenerator\CC2540DB\..\..\..\..\Components\ /
//                          hal\include\ -I D:\NTHU\¬ã¨s\Important\ThesisCode /
//                          \Code\GitLabCloud\NewEcoExec\codegenerator\Device /
//                          \EcoBT\Project\ble\CodeGenerator\CC2540DB\..\..\. /
//                          .\..\Components\hal\target\CC2540EB\ -I           /
//                          D:\NTHU\¬ã¨s\Important\ThesisCode\Code\GitLabClou /
//                          d\NewEcoExec\codegenerator\Device\EcoBT\Project\b /
//                          le\CodeGenerator\CC2540DB\..\..\..\..\Components\ /
//                          osal\include\ -I D:\NTHU\¬ã¨s\Important\ThesisCod /
//                          e\Code\GitLabCloud\NewEcoExec\codegenerator\Devic /
//                          e\EcoBT\Project\ble\CodeGenerator\CC2540DB\..\..\ /
//                          ..\..\Components\services\saddr\ -I               /
//                          D:\NTHU\¬ã¨s\Important\ThesisCode\Code\GitLabClou /
//                          d\NewEcoExec\codegenerator\Device\EcoBT\Project\b /
//                          le\CodeGenerator\CC2540DB\..\..\..\..\Components\ /
//                          ble\include\ -I D:\NTHU\¬ã¨s\Important\ThesisCode /
//                          \Code\GitLabCloud\NewEcoExec\codegenerator\Device /
//                          \EcoBT\Project\ble\CodeGenerator\CC2540DB\..\..\. /
//                          .\..\Components\ble\controller\phy\ -I            /
//                          D:\NTHU\¬ã¨s\Important\ThesisCode\Code\GitLabClou /
//                          d\NewEcoExec\codegenerator\Device\EcoBT\Project\b /
//                          le\CodeGenerator\CC2540DB\..\..\..\..\Components\ /
//                          ble\controller\include\ -I                        /
//                          D:\NTHU\¬ã¨s\Important\ThesisCode\Code\GitLabClou /
//                          d\NewEcoExec\codegenerator\Device\EcoBT\Project\b /
//                          le\CodeGenerator\CC2540DB\..\..\..\..\Components\ /
//                          ble\hci\ -I D:\NTHU\¬ã¨s\Important\ThesisCode\Cod /
//                          e\GitLabCloud\NewEcoExec\codegenerator\Device\Eco /
//                          BT\Project\ble\CodeGenerator\CC2540DB\..\..\..\.. /
//                          \Components\ble\host\ -I                          /
//                          D:\NTHU\¬ã¨s\Important\ThesisCode\Code\GitLabClou /
//                          d\NewEcoExec\codegenerator\Device\EcoBT\Project\b /
//                          le\CodeGenerator\CC2540DB\..\..\common\cc2540\    /
//                          -I D:\NTHU\¬ã¨s\Important\ThesisCode\Code\GitLabC /
//                          loud\NewEcoExec\codegenerator\Device\EcoBT\Projec /
//                          t\ble\CodeGenerator\CC2540DB\..\..\common\npi\npi /
//                          _np\ -I D:\NTHU\¬ã¨s\Important\ThesisCode\Code\Gi /
//                          tLabCloud\NewEcoExec\codegenerator\Device\EcoBT\P /
//                          roject\ble\CodeGenerator\CC2540DB\..\..\Profiles\ /
//                          Roles\ -I D:\NTHU\¬ã¨s\Important\ThesisCode\Code\ /
//                          GitLabCloud\NewEcoExec\codegenerator\Device\EcoBT /
//                          \Project\ble\CodeGenerator\CC2540DB\..\..\Profile /
//                          s\SimpleProfile\ -I D:\NTHU\¬ã¨s\Important\Thesis /
//                          Code\Code\GitLabCloud\NewEcoExec\codegenerator\De /
//                          vice\EcoBT\Project\ble\CodeGenerator\CC2540DB\..\ /
//                          ..\Profiles\DevInfo\ -I                           /
//                          D:\NTHU\¬ã¨s\Important\ThesisCode\Code\GitLabClou /
//                          d\NewEcoExec\codegenerator\Device\EcoBT\Project\b /
//                          le\CodeGenerator\CC2540DB\..\..\Profiles\Accelero /
//                          meter\ -I D:\NTHU\¬ã¨s\Important\ThesisCode\Code\ /
//                          GitLabCloud\NewEcoExec\codegenerator\Device\EcoBT /
//                          \Project\ble\CodeGenerator\CC2540DB\..\..\Profile /
//                          s\EcoExecGATTProfile\ -I                          /
//                          D:\NTHU\¬ã¨s\Important\ThesisCode\Code\GitLabClou /
//                          d\NewEcoExec\codegenerator\Device\EcoBT\Project\b /
//                          le\CodeGenerator\CC2540DB\..\..\Profiles\Batt\    /
//                          -I D:\NTHU\¬ã¨s\Important\ThesisCode\Code\GitLabC /
//                          loud\NewEcoExec\codegenerator\Device\EcoBT\Projec /
//                          t\ble\CodeGenerator\CC2540DB\..\..\Profiles\HIDDe /
//                          v\ -Ohz                                           /
//    List file          =  D:\NTHU\¬ã¨s\Important\ThesisCode\Code\GitLabClou /
//                          d\NewEcoExec\codegenerator\Device\EcoBT\Project\b /
//                          le\CodeGenerator\CC2540DB\CC2540\List\hal_key.s51 /
//                                                                            /
//                                                                            /
///////////////////////////////////////////////////////////////////////////////

        NAME hal_key

        RSEG DOVERLAY:DATA:NOROOT(0)
        RSEG IOVERLAY:IDATA:NOROOT(0)
        RSEG ISTACK:IDATA:NOROOT(0)
        RSEG PSTACK:XDATA:NOROOT(0)
        RSEG XSTACK:XDATA:NOROOT(0)

        EXTERN ?BANKED_ENTER_XDATA
        EXTERN ?BANKED_LEAVE_XDATA
        EXTERN ?BDISPATCH
        EXTERN ?BRET
        EXTERN ?CALL_IND
        EXTERN ?DEALLOC_XSTACK8
        EXTERN ?INTERRUPT_ENTER_XSP
        EXTERN ?INTERRUPT_LEAVE_XSP
        EXTERN ?PUSH_XSTACK8_X_FOUR
        EXTERN ?V0
        EXTERN __INIT_XDATA_Z

        PUBLIC ??HalKeyConfig?relay
        PUBLIC ??HalKeyEnterSleep?relay
        PUBLIC ??HalKeyExitSleep?relay
        PUBLIC ??HalKeyInit?relay
        PUBLIC ??HalKeyPoll?relay
        PUBLIC ??HalKeyRead?relay
        PUBLIC ??halGetJoyKeyInput?relay
        PUBWEAK `??halKeyPort2Isr??INTVEC 51`
        PUBLIC ??halProcessKeyInterrupt?relay
        PUBLIC HalKeyConfig
        PUBLIC HalKeyEnterSleep
        PUBLIC HalKeyExitSleep
        PUBLIC HalKeyInit
        PUBLIC HalKeyPoll
        PUBLIC HalKeyRead
        PUBLIC Hal_KeyIntEnable
        PUBWEAK IEN2
        PUBWEAK P0DIR
        PUBWEAK P0IEN
        PUBWEAK P0IFG
        PUBWEAK P0SEL
        PUBWEAK P2DIR
        PUBWEAK P2IEN
        PUBWEAK P2IFG
        PUBWEAK P2INP
        PUBWEAK P2SEL
        PUBWEAK PICTL
        PUBWEAK _A_IEN0
        PUBWEAK _A_IEN1
        PUBWEAK _A_IRCON2
        PUBWEAK _A_P0
        PUBWEAK _A_P2
        PUBWEAK __Constant_19
        PUBLIC halGetJoyKeyInput
        PUBLIC halKeyPort2Isr
        PUBLIC halProcessKeyInterrupt

HalAdcRead          SYMBOL "HalAdcRead"
??HalAdcRead?relay  SYMBOL "?relay", HalAdcRead
osal_set_event      SYMBOL "osal_set_event"
??osal_set_event?relay SYMBOL "?relay", osal_set_event
osal_start_timerEx  SYMBOL "osal_start_timerEx"
??osal_start_timerEx?relay SYMBOL "?relay", osal_start_timerEx
osal_stop_timerEx   SYMBOL "osal_stop_timerEx"
??osal_stop_timerEx?relay SYMBOL "?relay", osal_stop_timerEx
HalKeyConfig        SYMBOL "HalKeyConfig"
??HalKeyConfig?relay SYMBOL "?relay", HalKeyConfig
HalKeyEnterSleep    SYMBOL "HalKeyEnterSleep"
??HalKeyEnterSleep?relay SYMBOL "?relay", HalKeyEnterSleep
HalKeyExitSleep     SYMBOL "HalKeyExitSleep"
??HalKeyExitSleep?relay SYMBOL "?relay", HalKeyExitSleep
HalKeyInit          SYMBOL "HalKeyInit"
??HalKeyInit?relay  SYMBOL "?relay", HalKeyInit
HalKeyPoll          SYMBOL "HalKeyPoll"
??HalKeyPoll?relay  SYMBOL "?relay", HalKeyPoll
HalKeyRead          SYMBOL "HalKeyRead"
??HalKeyRead?relay  SYMBOL "?relay", HalKeyRead
halGetJoyKeyInput   SYMBOL "halGetJoyKeyInput"
??halGetJoyKeyInput?relay SYMBOL "?relay", halGetJoyKeyInput
halKeyPort2Isr      SYMBOL "halKeyPort2Isr"
`??halKeyPort2Isr??INTVEC 51` SYMBOL "??INTVEC 51", halKeyPort2Isr
halProcessKeyInterrupt SYMBOL "halProcessKeyInterrupt"
??halProcessKeyInterrupt?relay SYMBOL "?relay", halProcessKeyInterrupt

        EXTERN ??HalAdcRead?relay
        EXTERN ??osal_set_event?relay
        EXTERN ??osal_start_timerEx?relay
        EXTERN ??osal_stop_timerEx?relay
        EXTERN HalAdcRead
        EXTERN Hal_TaskID
        EXTERN osal_set_event
        EXTERN osal_start_timerEx
        EXTERN osal_stop_timerEx

// D:\NTHU\¬ã¨s\Important\ThesisCode\Code\GitLabCloud\NewEcoExec\codegenerator\Device\EcoBT\Components\hal\target\CC2540EB\hal_key.c
//    1 /**************************************************************************************************
//    2   Filename:       hal_key.c
//    3   Revised:        $Date: 2012-12-06 14:00:35 -0800 (Thu, 06 Dec 2012) $
//    4   Revision:       $Revision: 32474 $
//    5 
//    6   Description:    This file contains the interface to the HAL KEY Service.
//    7 
//    8 
//    9   Copyright 2006-2012 Texas Instruments Incorporated. All rights reserved.
//   10 
//   11   IMPORTANT: Your use of this Software is limited to those specific rights
//   12   granted under the terms of a software license agreement between the user
//   13   who downloaded the software, his/her employer (which must be your employer)
//   14   and Texas Instruments Incorporated (the "License").  You may not use this
//   15   Software unless you agree to abide by the terms of the License. The License
//   16   limits your use, and you acknowledge, that the Software may not be modified,
//   17   copied or distributed unless embedded on a Texas Instruments microcontroller
//   18   or used solely and exclusively in conjunction with a Texas Instruments radio
//   19   frequency transceiver, which is integrated into your product.  Other than for
//   20   the foregoing purpose, you may not use, reproduce, copy, prepare derivative
//   21   works of, modify, distribute, perform, display or sell this Software and/or
//   22   its documentation for any purpose.
//   23 
//   24   YOU FURTHER ACKNOWLEDGE AND AGREE THAT THE SOFTWARE AND DOCUMENTATION ARE
//   25   PROVIDED “AS IS” WITHOUT WARRANTY OF ANY KIND, EITHER EXPRESS OR IMPLIED,
//   26   INCLUDING WITHOUT LIMITATION, ANY WARRANTY OF MERCHANTABILITY, TITLE,
//   27   NON-INFRINGEMENT AND FITNESS FOR A PARTICULAR PURPOSE. IN NO EVENT SHALL
//   28   TEXAS INSTRUMENTS OR ITS LICENSORS BE LIABLE OR OBLIGATED UNDER CONTRACT,
//   29   NEGLIGENCE, STRICT LIABILITY, CONTRIBUTION, BREACH OF WARRANTY, OR OTHER
//   30   LEGAL EQUITABLE THEORY ANY DIRECT OR INDIRECT DAMAGES OR EXPENSES
//   31   INCLUDING BUT NOT LIMITED TO ANY INCIDENTAL, SPECIAL, INDIRECT, PUNITIVE
//   32   OR CONSEQUENTIAL DAMAGES, LOST PROFITS OR LOST DATA, COST OF PROCUREMENT
//   33   OF SUBSTITUTE GOODS, TECHNOLOGY, SERVICES, OR ANY CLAIMS BY THIRD PARTIES
//   34   (INCLUDING BUT NOT LIMITED TO ANY DEFENSE THEREOF), OR OTHER SIMILAR COSTS.
//   35 
//   36   Should you have any questions regarding your right to use this Software,
//   37   contact Texas Instruments Incorporated at www.TI.com.
//   38 **************************************************************************************************/
//   39 /*********************************************************************
//   40  NOTE: If polling is used, the hal_driver task schedules the KeyRead()
//   41        to occur every 100ms.  This should be long enough to naturally
//   42        debounce the keys.  The KeyRead() function remembers the key
//   43        state of the previous poll and will only return a non-zero
//   44        value if the key state changes.
//   45 
//   46  NOTE: If interrupts are used, the KeyRead() function is scheduled
//   47        25ms after the interrupt occurs by the ISR.  This delay is used
//   48        for key debouncing.  The ISR disables any further Key interrupt
//   49        until KeyRead() is executed.  KeyRead() will re-enable Key
//   50        interrupts after executing.  Unlike polling, when interrupts
//   51        are enabled, the previous key state is not remembered.  This
//   52        means that KeyRead() will return the current state of the keys
//   53        (not a change in state of the keys).
//   54 
//   55  NOTE: If interrupts are used, the KeyRead() fucntion is scheduled by
//   56        the ISR.  Therefore, the joystick movements will only be detected
//   57        during a pushbutton interrupt caused by S1 or the center joystick
//   58        pushbutton.
//   59 
//   60  NOTE: When a switch like S1 is pushed, the S1 signal goes from a normally
//   61        high state to a low state.  This transition is typically clean.  The
//   62        duration of the low state is around 200ms.  When the signal returns
//   63        to the high state, there is a high likelihood of signal bounce, which
//   64        causes a unwanted interrupts.  Normally, we would set the interrupt
//   65        edge to falling edge to generate an interrupt when S1 is pushed, but
//   66        because of the signal bounce, it is better to set the edge to rising
//   67        edge to generate an interrupt when S1 is released.  The debounce logic
//   68        can then filter out the signal bounce.  The result is that we typically
//   69        get only 1 interrupt per button push.  This mechanism is not totally
//   70        foolproof because occasionally, signal bound occurs during the falling
//   71        edge as well.  A similar mechanism is used to handle the joystick
//   72        pushbutton on the DB.  For the EB, we do not have independent control
//   73        of the interrupt edge for the S1 and center joystick pushbutton.  As
//   74        a result, only one or the other pushbuttons work reasonably well with
//   75        interrupts.  The default is the make the S1 switch on the EB work more
//   76        reliably.
//   77 
//   78 *********************************************************************/
//   79 
//   80 /**************************************************************************************************
//   81  *                                            INCLUDES
//   82  **************************************************************************************************/
//   83 #include "hal_mcu.h"

        ASEGN SFR_AN:DATA:NOROOT,080H
// union <unnamed> volatile __sfr _A_P0
_A_P0:
        DATA8
        DS 1

        ASEGN SFR_AN:DATA:NOROOT,089H
// unsigned char volatile __sfr P0IFG
P0IFG:
        DATA8
        DS 1

        ASEGN SFR_AN:DATA:NOROOT,08bH
// unsigned char volatile __sfr P2IFG
P2IFG:
        DATA8
        DS 1

        ASEGN SFR_AN:DATA:NOROOT,08cH
// unsigned char volatile __sfr PICTL
PICTL:
        DATA8
        DS 1

        ASEGN SFR_AN:DATA:NOROOT,09aH
// unsigned char volatile __sfr IEN2
IEN2:
        DATA8
        DS 1

        ASEGN SFR_AN:DATA:NOROOT,0a0H
// union <unnamed> volatile __sfr _A_P2
_A_P2:
        DATA8
        DS 1

        ASEGN SFR_AN:DATA:NOROOT,0a8H
// union <unnamed> volatile __sfr _A_IEN0
_A_IEN0:
        DATA8
        DS 1

        ASEGN SFR_AN:DATA:NOROOT,0abH
// unsigned char volatile __sfr P0IEN
P0IEN:
        DATA8
        DS 1

        ASEGN SFR_AN:DATA:NOROOT,0acH
// unsigned char volatile __sfr P2IEN
P2IEN:
        DATA8
        DS 1

        ASEGN SFR_AN:DATA:NOROOT,0b8H
// union <unnamed> volatile __sfr _A_IEN1
_A_IEN1:
        DATA8
        DS 1

        ASEGN SFR_AN:DATA:NOROOT,0e8H
// union <unnamed> volatile __sfr _A_IRCON2
_A_IRCON2:
        DATA8
        DS 1

        ASEGN SFR_AN:DATA:NOROOT,0f3H
// unsigned char volatile __sfr P0SEL
P0SEL:
        DATA8
        DS 1

        ASEGN SFR_AN:DATA:NOROOT,0f5H
// unsigned char volatile __sfr P2SEL
P2SEL:
        DATA8
        DS 1

        ASEGN SFR_AN:DATA:NOROOT,0f7H
// unsigned char volatile __sfr P2INP
P2INP:
        DATA8
        DS 1

        ASEGN SFR_AN:DATA:NOROOT,0fdH
// unsigned char volatile __sfr P0DIR
P0DIR:
        DATA8
        DS 1

        ASEGN SFR_AN:DATA:NOROOT,0ffH
// unsigned char volatile __sfr P2DIR
P2DIR:
        DATA8
        DS 1
//   84 #include "hal_defs.h"
//   85 #include "hal_types.h"
//   86 #include "hal_drivers.h"
//   87 #include "hal_adc.h"
//   88 #include "hal_key.h"
//   89 #include "osal.h"
//   90 
//   91 #if (defined HAL_KEY) && (HAL_KEY == TRUE)
//   92 
//   93 /**************************************************************************************************
//   94  *                                            CONSTANTS
//   95  **************************************************************************************************/
//   96 #define HAL_KEY_RISING_EDGE   0
//   97 #define HAL_KEY_FALLING_EDGE  1
//   98 
//   99 #define HAL_KEY_DEBOUNCE_VALUE  25
//  100 
//  101 /* CPU port interrupt */
//  102 #define HAL_KEY_CPU_PORT_0_IF P0IF
//  103 #define HAL_KEY_CPU_PORT_2_IF P2IF
//  104 
//  105 #if defined ( CC2540_MINIDK )
//  106 /* SW_1 is at P0.0 */
//  107 #define HAL_KEY_SW_1_PORT   P0
//  108 #define HAL_KEY_SW_1_BIT    BV(0)
//  109 #define HAL_KEY_SW_1_SEL    P0SEL
//  110 #define HAL_KEY_SW_1_DIR    P0DIR
//  111 
//  112 /* SW_2 is at P0.1 */
//  113 #define HAL_KEY_SW_2_PORT   P0
//  114 #define HAL_KEY_SW_2_BIT    BV(1)
//  115 #define HAL_KEY_SW_2_SEL    P0SEL
//  116 #define HAL_KEY_SW_2_DIR    P0DIR
//  117 
//  118 #define HAL_KEY_SW_1_IEN      IEN1  /* CPU interrupt mask register */
//  119 #define HAL_KEY_SW_1_ICTL     P0IEN /* Port Interrupt Control register */
//  120 #define HAL_KEY_SW_1_ICTLBIT  BV(0) /* P0IEN - P0.0 enable/disable bit */
//  121 #define HAL_KEY_SW_1_IENBIT   BV(5) /* Mask bit for all of Port_0 */
//  122 
//  123 #define HAL_KEY_SW_1_PXIFG    P0IFG /* Interrupt flag at source */
//  124 #define HAL_KEY_SW_2_IEN      IEN1  /* CPU interrupt mask register */
//  125 #define HAL_KEY_SW_2_ICTL     P0IEN /* Port Interrupt Control register */
//  126 #define HAL_KEY_SW_2_ICTLBIT  BV(1) /* P0IEN - P0.1 enable/disable bit */
//  127 #define HAL_KEY_SW_2_IENBIT   BV(5) /* Mask bit for all of Port_0 */
//  128 #define HAL_KEY_SW_2_PXIFG    P0IFG /* Interrupt flag at source */
//  129 
//  130 #define HAL_KEY_SW_1_EDGEBIT  BV(0)
//  131 
//  132 #else
//  133 
//  134 /* SW_6 is at P0.1 */
//  135 #define HAL_KEY_SW_6_PORT   P0
//  136 #define HAL_KEY_SW_6_BIT    BV(1)
//  137 #define HAL_KEY_SW_6_SEL    P0SEL
//  138 #define HAL_KEY_SW_6_DIR    P0DIR
//  139 
//  140 /* edge interrupt */
//  141 #define HAL_KEY_SW_6_EDGEBIT  BV(0)
//  142 #define HAL_KEY_SW_6_EDGE     HAL_KEY_FALLING_EDGE
//  143 
//  144 /* SW_6 interrupts */
//  145 #define HAL_KEY_SW_6_IEN      IEN1  /* CPU interrupt mask register */
//  146 #define HAL_KEY_SW_6_IENBIT   BV(5) /* Mask bit for all of Port_0 */
//  147 #define HAL_KEY_SW_6_ICTL     P0IEN /* Port Interrupt Control register */
//  148 #define HAL_KEY_SW_6_ICTLBIT  BV(1) /* P0IEN - P0.1 enable/disable bit */
//  149 #define HAL_KEY_SW_6_PXIFG    P0IFG /* Interrupt flag at source */
//  150 
//  151 /* Joy stick move at P2.0 */
//  152 #define HAL_KEY_JOY_MOVE_PORT   P2
//  153 #define HAL_KEY_JOY_MOVE_BIT    BV(0)
//  154 #define HAL_KEY_JOY_MOVE_SEL    P2SEL
//  155 #define HAL_KEY_JOY_MOVE_DIR    P2DIR
//  156 
//  157 /* edge interrupt */
//  158 #define HAL_KEY_JOY_MOVE_EDGEBIT  BV(3)
//  159 #define HAL_KEY_JOY_MOVE_EDGE     HAL_KEY_FALLING_EDGE
//  160 
//  161 /* Joy move interrupts */
//  162 #define HAL_KEY_JOY_MOVE_IEN      IEN2  /* CPU interrupt mask register */
//  163 #define HAL_KEY_JOY_MOVE_IENBIT   BV(1) /* Mask bit for all of Port_2 */
//  164 #define HAL_KEY_JOY_MOVE_ICTL     P2IEN /* Port Interrupt Control register */
//  165 #define HAL_KEY_JOY_MOVE_ICTLBIT  BV(0) /* P2IENL - P2.0<->P2.3 enable/disable bit */
//  166 #define HAL_KEY_JOY_MOVE_PXIFG    P2IFG /* Interrupt flag at source */
//  167 
//  168 #define HAL_KEY_JOY_CHN   HAL_ADC_CHANNEL_6
//  169 
//  170 #endif
//  171 
//  172 /**************************************************************************************************
//  173  *                                            TYPEDEFS
//  174  **************************************************************************************************/
//  175 
//  176 
//  177 /**************************************************************************************************
//  178  *                                        GLOBAL VARIABLES
//  179  **************************************************************************************************/

        RSEG XDATA_Z:XDATA:NOROOT(0)
        DATA8
//  180 static uint8 halKeySavedKeys;     /* used to store previous key state in polling mode */
halKeySavedKeys:
        DS 1
        REQUIRE __INIT_XDATA_Z

        RSEG XDATA_Z:XDATA:NOROOT(0)
        DATA16
//  181 static halKeyCBack_t pHalKeyProcessFunction;
pHalKeyProcessFunction:
        DS 2
        REQUIRE __INIT_XDATA_Z

        RSEG XDATA_Z:XDATA:NOROOT(0)
        DATA8
//  182 static uint8 HalKeyConfigured;
HalKeyConfigured:
        DS 1
        REQUIRE __INIT_XDATA_Z

        RSEG XDATA_Z:XDATA:NOROOT(0)
        DATA8
//  183 bool Hal_KeyIntEnable;            /* interrupt enable/disable flag */
Hal_KeyIntEnable:
        DS 1
        REQUIRE __INIT_XDATA_Z
//  184 
//  185 /**************************************************************************************************
//  186  *                                        FUNCTIONS - Local
//  187  **************************************************************************************************/
//  188 void halProcessKeyInterrupt(void);
//  189 uint8 halGetJoyKeyInput(void);
//  190 
//  191 
//  192 
//  193 /**************************************************************************************************
//  194  *                                        FUNCTIONS - API
//  195  **************************************************************************************************/
//  196 
//  197 
//  198 /**************************************************************************************************
//  199  * @fn      HalKeyInit
//  200  *
//  201  * @brief   Initilize Key Service
//  202  *
//  203  * @param   none
//  204  *
//  205  * @return  None
//  206  **************************************************************************************************/

        RSEG BANKED_CODE:CODE:NOROOT(0)
//  207 void HalKeyInit( void )
HalKeyInit:
        CODE
//  208 {
        PUSH    DPL
        PUSH    DPH
        ; Saved register size: 2
        ; Auto size: 0
//  209   halKeySavedKeys = 0;  // Initialize previous key to 0.
        MOV     DPTR,#halKeySavedKeys
        CLR     A
        MOVX    @DPTR,A
//  210 
//  211 #if defined ( CC2540_MINIDK )
//  212   HAL_KEY_SW_1_SEL &= ~(HAL_KEY_SW_1_BIT);    /* Set pin function to GPIO */
//  213   HAL_KEY_SW_1_DIR &= ~(HAL_KEY_SW_1_BIT);    /* Set pin direction to Input */
//  214   HAL_KEY_SW_2_SEL &= ~(HAL_KEY_SW_2_BIT);    /* Set pin function to GPIO */
//  215   HAL_KEY_SW_2_DIR &= ~(HAL_KEY_SW_2_BIT);    /* Set pin direction to Input */
//  216 #else
//  217   HAL_KEY_SW_6_SEL &= ~(HAL_KEY_SW_6_BIT);    /* Set pin function to GPIO */
        ANL     0xf3,#0xfd
//  218   HAL_KEY_SW_6_DIR &= ~(HAL_KEY_SW_6_BIT);    /* Set pin direction to Input */
        ANL     0xfd,#0xfd
//  219   HAL_KEY_JOY_MOVE_SEL &= ~(HAL_KEY_JOY_MOVE_BIT); /* Set pin function to GPIO */
        ANL     0xf5,#0xfe
//  220   HAL_KEY_JOY_MOVE_DIR &= ~(HAL_KEY_JOY_MOVE_BIT); /* Set pin direction to Input */
        ANL     0xff,#0xfe
//  221 
//  222   P2INP |= PUSH2_BV;  /* Configure GPIO tri-state. */
        ORL     0xf7,#0x1
//  223 #endif
//  224 
//  225   /* Initialize callback function */
//  226   pHalKeyProcessFunction  = NULL;
        MOV     DPTR,#pHalKeyProcessFunction
        MOVX    @DPTR,A
        INC     DPTR
        MOVX    @DPTR,A
//  227 
//  228   /* Start with key is not configured */
//  229   HalKeyConfigured = FALSE;
        MOV     DPTR,#HalKeyConfigured
        MOVX    @DPTR,A
//  230 }
        REQUIRE ?Subroutine0
        REQUIRE P0SEL
        REQUIRE P0DIR
        REQUIRE P2SEL
        REQUIRE P2DIR
        REQUIRE P2INP
        ; // Fall through to label ?Subroutine0

        RSEG BANKED_CODE:CODE:NOROOT(0)
?Subroutine0:
        POP     DPH
        POP     DPL
        LJMP    ?BRET
//  231 
//  232 
//  233 /**************************************************************************************************
//  234  * @fn      HalKeyConfig
//  235  *
//  236  * @brief   Configure the Key serivce
//  237  *
//  238  * @param   interruptEnable - TRUE/FALSE, enable/disable interrupt
//  239  *          cback - pointer to the CallBack function
//  240  *
//  241  * @return  None
//  242  **************************************************************************************************/

        RSEG BANKED_CODE:CODE:NOROOT(0)
//  243 void HalKeyConfig (bool interruptEnable, halKeyCBack_t cback)
HalKeyConfig:
        CODE
//  244 {
        MOV     A,#-0x9
        LCALL   ?BANKED_ENTER_XDATA
        ; Saved register size: 9
        ; Auto size: 0
        MOV     A,R1
//  245   /* Enable/Disable Interrupt or */
//  246   Hal_KeyIntEnable = interruptEnable;
        MOV     DPTR,#Hal_KeyIntEnable
        MOVX    @DPTR,A
//  247 
//  248   /* Register the callback fucntion */
//  249   pHalKeyProcessFunction = cback;
        MOV     DPTR,#pHalKeyProcessFunction
        MOV     A,R2
        MOVX    @DPTR,A
        INC     DPTR
        MOV     A,R3
        MOVX    @DPTR,A
//  250 
//  251   /* Determine if interrupt is enable or not */
//  252   if (Hal_KeyIntEnable)
        MOV     DPTR,#Hal_KeyIntEnable
        MOVX    A,@DPTR
        JZ      ??HalKeyConfig_0
//  253   {
//  254 #if defined ( CC2540_MINIDK )
//  255     /* Rising/Falling edge configuratinn */
//  256     PICTL |= HAL_KEY_SW_1_EDGEBIT;   /* Set the edge bit to set falling edge to give int */
//  257 
//  258     HAL_KEY_SW_1_ICTL |= HAL_KEY_SW_1_ICTLBIT; /* enable interrupt generation at port */
//  259     HAL_KEY_SW_1_IEN |= HAL_KEY_SW_1_IENBIT;   /* enable CPU interrupt */
//  260     HAL_KEY_SW_1_PXIFG = ~(HAL_KEY_SW_1_BIT); /* Clear any pending interrupt */
//  261     HAL_KEY_SW_2_ICTL |= HAL_KEY_SW_2_ICTLBIT; /* enable interrupt generation at port */
//  262     HAL_KEY_SW_2_IEN |= HAL_KEY_SW_2_IENBIT;   /* enable CPU interrupt */
//  263     HAL_KEY_SW_2_PXIFG = ~(HAL_KEY_SW_2_BIT); /* Clear any pending interrupt */
//  264 
//  265 #else
//  266     /* Rising/Falling edge configuratinn */
//  267     PICTL &= ~(HAL_KEY_SW_6_EDGEBIT);    /* Clear the edge bit */
        ANL     0x8c,#0xfe
//  268     /* For falling edge, the bit must be set. */
//  269   #if (HAL_KEY_SW_6_EDGE == HAL_KEY_FALLING_EDGE)
//  270     PICTL |= HAL_KEY_SW_6_EDGEBIT;
        ORL     0x8c,#0x1
//  271   #endif
//  272 
//  273 
//  274     /* Interrupt configuration:
//  275      * - Enable interrupt generation at the port
//  276      * - Enable CPU interrupt
//  277      * - Clear any pending interrupt
//  278      */
//  279     HAL_KEY_SW_6_ICTL |= HAL_KEY_SW_6_ICTLBIT;
        ORL     0xab,#0x2
//  280     HAL_KEY_SW_6_IEN |= HAL_KEY_SW_6_IENBIT;
        SETB    0xb8.5
//  281     HAL_KEY_SW_6_PXIFG = ~(HAL_KEY_SW_6_BIT);
        MOV     0x89,#-0x3
//  282 
//  283 
//  284 
//  285     /* Rising/Falling edge configuratinn */
//  286 
//  287     HAL_KEY_JOY_MOVE_ICTL &= ~(HAL_KEY_JOY_MOVE_EDGEBIT);    /* Clear the edge bit */
        ANL     0xac,#0xf7
//  288     /* For falling edge, the bit must be set. */
//  289   #if (HAL_KEY_JOY_MOVE_EDGE == HAL_KEY_FALLING_EDGE)
//  290     HAL_KEY_JOY_MOVE_ICTL |= HAL_KEY_JOY_MOVE_EDGEBIT;
        ORL     0xac,#0x8
//  291   #endif
//  292 
//  293 
//  294     /* Interrupt configuration:
//  295      * - Enable interrupt generation at the port
//  296      * - Enable CPU interrupt
//  297      * - Clear any pending interrupt
//  298      */
//  299     HAL_KEY_JOY_MOVE_ICTL |= HAL_KEY_JOY_MOVE_ICTLBIT;
        ORL     0xac,#0x1
//  300     HAL_KEY_JOY_MOVE_IEN |= HAL_KEY_JOY_MOVE_IENBIT;
        ORL     0x9a,#0x2
//  301     HAL_KEY_JOY_MOVE_PXIFG = ~(HAL_KEY_JOY_MOVE_BIT);
        MOV     0x8b,#-0x2
//  302 #endif // !CC2540_MINIDK
//  303 
//  304     /* Do this only after the hal_key is configured - to work with sleep stuff */
//  305     if (HalKeyConfigured == TRUE)
        MOV     DPTR,#HalKeyConfigured
        MOVX    A,@DPTR
        XRL     A,#0x1
        JNZ     ??HalKeyConfig_1
//  306     {
//  307       osal_stop_timerEx(Hal_TaskID, HAL_KEY_EVENT);  /* Cancel polling if active */
        ; Setup parameters for call to function osal_stop_timerEx
        MOV     R2,#0x10
        MOV     R3,#0x0
        MOV     DPTR,#Hal_TaskID
        MOVX    A,@DPTR
        MOV     R1,A
        LCALL   ??osal_stop_timerEx?relay
        SJMP    ??HalKeyConfig_1
//  308     }
//  309   }
//  310   else    /* Interrupts NOT enabled */
//  311   {
//  312 #if defined ( CC2540_MINIDK )
//  313     HAL_KEY_SW_1_ICTL &= ~(HAL_KEY_SW_1_ICTLBIT); /* don't generate interrupt */
//  314     HAL_KEY_SW_1_IEN &= ~(HAL_KEY_SW_1_IENBIT);   /* Clear interrupt enable bit */
//  315     HAL_KEY_SW_2_ICTL &= ~(HAL_KEY_SW_2_ICTLBIT); /* don't generate interrupt */
//  316     HAL_KEY_SW_2_IEN &= ~(HAL_KEY_SW_2_IENBIT);   /* Clear interrupt enable bit */
//  317 #else
//  318     HAL_KEY_SW_6_ICTL &= ~(HAL_KEY_SW_6_ICTLBIT); /* don't generate interrupt */
??HalKeyConfig_0:
        ANL     0xab,#0xfd
//  319     HAL_KEY_SW_6_IEN &= ~(HAL_KEY_SW_6_IENBIT);   /* Clear interrupt enable bit */
        CLR     0xb8.5
//  320 #endif  // !CC2540_MINIDK
//  321 
//  322     osal_set_event(Hal_TaskID, HAL_KEY_EVENT);
        ; Setup parameters for call to function osal_set_event
        MOV     R2,#0x10
        MOV     R3,#0x0
        MOV     DPTR,#Hal_TaskID
        MOVX    A,@DPTR
        MOV     R1,A
        LCALL   ??osal_set_event?relay
//  323   }
//  324 
//  325   /* Key now is configured */
//  326   HalKeyConfigured = TRUE;
??HalKeyConfig_1:
        MOV     DPTR,#HalKeyConfigured
        MOV     A,#0x1
        MOVX    @DPTR,A
//  327 }
        MOV     R7,A
        LJMP    ?BANKED_LEAVE_XDATA
        REQUIRE PICTL
        REQUIRE P0IEN
        REQUIRE _A_IEN1
        REQUIRE P0IFG
        REQUIRE P2IEN
        REQUIRE IEN2
        REQUIRE P2IFG
//  328 
//  329 
//  330 /**************************************************************************************************
//  331  * @fn      HalKeyRead
//  332  *
//  333  * @brief   Read the current value of a key
//  334  *
//  335  * @param   None
//  336  *
//  337  * @return  keys - current keys status
//  338  **************************************************************************************************/

        RSEG BANKED_CODE:CODE:NOROOT(0)
//  339 uint8 HalKeyRead ( void )
HalKeyRead:
        CODE
//  340 {
        MOV     A,#-0x9
        LCALL   ?BANKED_ENTER_XDATA
        ; Saved register size: 9
        ; Auto size: 0
//  341   uint8 keys = 0;
        MOV     ?V0 + 0,#0x0
//  342 
//  343 #if defined (CC2540_MINIDK)
//  344   if (!(HAL_KEY_SW_1_PORT & HAL_KEY_SW_1_BIT))    /* Key is active low */
//  345   {
//  346     keys |= HAL_KEY_SW_1;
//  347   }
//  348   if (!(HAL_KEY_SW_2_PORT & HAL_KEY_SW_2_BIT))    /* Key is active low */
//  349   {
//  350     keys |= HAL_KEY_SW_2;
//  351   }
//  352 #else
//  353 #ifdef HAL_BOARD_CC2530EB_REV17
//  354   if ( (HAL_KEY_SW_6_PORT & HAL_KEY_SW_6_BIT))    /* Key is active high */
        MOV     C,0x80.1
        JNC     ??HalKeyRead_0
//  355 #elif defined (HAL_BOARD_CC2530EB_REV13)
//  356   if (!(HAL_KEY_SW_6_PORT & HAL_KEY_SW_6_BIT))    /* Key is active low */
//  357 #endif
//  358   {
//  359     keys |= HAL_KEY_SW_6;
        MOV     ?V0 + 0,#0x20
//  360   }
//  361 
//  362   if ((HAL_KEY_JOY_MOVE_PORT & HAL_KEY_JOY_MOVE_BIT))  /* Key is active low */
??HalKeyRead_0:
        MOV     C,0xa0.0
        JNC     ??HalKeyRead_1
//  363   {
//  364     keys |= halGetJoyKeyInput();
        ; Setup parameters for call to function halGetJoyKeyInput
        LCALL   ??halGetJoyKeyInput?relay
        MOV     A,R1
        ORL     ?V0 + 0,A
//  365   }
//  366 #endif
//  367   return keys;
??HalKeyRead_1:
        MOV     R1,?V0 + 0
        REQUIRE ?Subroutine1
        REQUIRE _A_P0
        REQUIRE _A_P2
        ; // Fall through to label ?Subroutine1
//  368 }

        RSEG BANKED_CODE:CODE:NOROOT(0)
?Subroutine1:
        MOV     R7,#0x1
        LJMP    ?BANKED_LEAVE_XDATA
//  369 
//  370 
//  371 /**************************************************************************************************
//  372  * @fn      HalKeyPoll
//  373  *
//  374  * @brief   Called by hal_driver to poll the keys
//  375  *
//  376  * @param   None
//  377  *
//  378  * @return  None
//  379  **************************************************************************************************/

        RSEG BANKED_CODE:CODE:NOROOT(0)
//  380 void HalKeyPoll (void)
HalKeyPoll:
        CODE
//  381 {
        MOV     A,#-0x9
        LCALL   ?BANKED_ENTER_XDATA
        ; Saved register size: 9
        ; Auto size: 0
//  382   uint8 keys = 0;
        MOV     R1,#0x0
//  383   uint8 notify = 0;
        MOV     R6,#0x0
//  384 #if defined (CC2540_MINIDK)
//  385   if (!(HAL_KEY_SW_1_PORT & HAL_KEY_SW_1_BIT))    /* Key is active low */
//  386   {
//  387     keys |= HAL_KEY_SW_1;
//  388   }
//  389   if (!(HAL_KEY_SW_2_PORT & HAL_KEY_SW_2_BIT))    /* Key is active low */
//  390   {
//  391     keys |= HAL_KEY_SW_2;
//  392   }
//  393 #else
//  394   if (!(HAL_KEY_SW_6_PORT & HAL_KEY_SW_6_BIT))    /* Key is active low */
        MOV     C,0x80.1
        JC      ??HalKeyPoll_0
//  395   {
//  396     keys |= HAL_KEY_SW_6;
        MOV     R1,#0x20
//  397   }
//  398 
//  399   if ((HAL_KEY_JOY_MOVE_PORT & HAL_KEY_JOY_MOVE_BIT))  /* Key is active HIGH */
??HalKeyPoll_0:
        MOV     C,0xa0.0
        JNC     ??HalKeyPoll_1
//  400   {
//  401     keys = halGetJoyKeyInput();
        ; Setup parameters for call to function halGetJoyKeyInput
        LCALL   ??halGetJoyKeyInput?relay
//  402   }
//  403 #endif
//  404 
//  405   /* If interrupts are not enabled, previous key status and current key status
//  406    * are compared to find out if a key has changed status.
//  407    */
//  408   if (!Hal_KeyIntEnable)
??HalKeyPoll_1:
        MOV     DPTR,#Hal_KeyIntEnable
        MOVX    A,@DPTR
        JNZ     ??HalKeyPoll_2
//  409   {
//  410     if (keys == halKeySavedKeys)
        MOV     DPTR,#halKeySavedKeys
        MOVX    A,@DPTR
        XRL     A,R1
        JNZ     ??HalKeyPoll_3
        SJMP    ??HalKeyPoll_4
//  411     {
//  412       /* Exit - since no keys have changed */
//  413       return;
//  414     }
//  415     else
//  416     {
//  417       notify = 1;
//  418     }
//  419   }
//  420   else
//  421   {
//  422     /* Key interrupt handled here */
//  423     if (keys)
??HalKeyPoll_2:
        MOV     A,R1
        JZ      ??HalKeyPoll_5
//  424     {
//  425       notify = 1;
??HalKeyPoll_3:
        INC     R6
//  426     }
//  427   }
//  428 
//  429   /* Store the current keys for comparation next time */
//  430   halKeySavedKeys = keys;
??HalKeyPoll_5:
        MOV     A,R1
        MOV     DPTR,#halKeySavedKeys
        MOVX    @DPTR,A
//  431 
//  432   /* Invoke Callback if new keys were depressed */
//  433   if (notify && (pHalKeyProcessFunction))
        MOV     A,R6
        MOV     C,0xE0 /* A   */.0
        JNC     ??HalKeyPoll_4
        MOV     DPTR,#pHalKeyProcessFunction
        MOVX    A,@DPTR
        MOV     R2,A
        INC     DPTR
        MOVX    A,@DPTR
        MOV     R3,A
        MOV     A,R2
        ORL     A,R3
        JZ      ??HalKeyPoll_4
//  434   {
//  435     (pHalKeyProcessFunction) (keys, HAL_KEY_STATE_NORMAL);
        ; Setup parameters for indirect call
        MOV     R2,#0x0
        MOV     DPTR,#pHalKeyProcessFunction
        MOVX    A,@DPTR
        MOV     R0,A
        INC     DPTR
        MOVX    A,@DPTR
        MOV     DPH,A
        MOV     DPL,R0
        LCALL   ?CALL_IND
//  436 
//  437   }
??HalKeyPoll_4:
        SJMP    ?Subroutine1
        REQUIRE _A_P0
        REQUIRE _A_P2
//  438 }
//  439 
//  440 #if !defined ( CC2540_MINIDK )
//  441 /**************************************************************************************************
//  442  * @fn      halGetJoyKeyInput
//  443  *
//  444  * @brief   Map the ADC value to its corresponding key.
//  445  *
//  446  * @param   None
//  447  *
//  448  * @return  keys - current joy key status
//  449  **************************************************************************************************/

        RSEG BANKED_CODE:CODE:NOROOT(0)
//  450 uint8 halGetJoyKeyInput(void)
halGetJoyKeyInput:
        CODE
//  451 {
        MOV     A,#-0x9
        LCALL   ?BANKED_ENTER_XDATA
        ; Saved register size: 9
        ; Auto size: 0
//  452   /* The joystick control is encoded as an analog voltage.
//  453    * Read the JOY_LEVEL analog value and map it to joy movement.
//  454    */
//  455   uint8 adc;
//  456   uint8 ksave0 = 0;
        MOV     R6,#0x0
//  457   uint8 ksave1;
//  458 
//  459   /* Keep on reading the ADC until two consecutive key decisions are the same. */
//  460   do
//  461   {
//  462     ksave1 = ksave0;    /* save previouse key reading */
??halGetJoyKeyInput_0:
        MOV     A,R6
        MOV     R7,A
//  463 
//  464     adc = HalAdcRead (HAL_KEY_JOY_CHN, HAL_ADC_RESOLUTION_8);
        ; Setup parameters for call to function HalAdcRead
        MOV     R2,#0x1
        MOV     R1,#0x6
        LCALL   ??HalAdcRead?relay
        MOV     A,R2
        MOV     R0,A
//  465 
//  466     if ((adc >= 2) && (adc <= 38))
        MOV     A,#-0x2
        ADD     A,R0
        CLR     C
        SUBB    A,#0x25
        JNC     ??halGetJoyKeyInput_1
//  467     {
//  468        ksave0 |= HAL_KEY_UP;
        MOV     A,R6
        SETB    0xE0 /* A   */.0
        SJMP    ??halGetJoyKeyInput_2
//  469     }
//  470     else if ((adc >= 74) && (adc <= 88))
??halGetJoyKeyInput_1:
        MOV     A,#-0x4a
        ADD     A,R0
        CLR     C
        SUBB    A,#0xf
        JNC     ??halGetJoyKeyInput_3
//  471     {
//  472       ksave0 |= HAL_KEY_RIGHT;
        MOV     A,R6
        SETB    0xE0 /* A   */.1
        SJMP    ??halGetJoyKeyInput_2
//  473     }
//  474     else if ((adc >= 60) && (adc <= 73))
??halGetJoyKeyInput_3:
        MOV     A,#-0x3c
        ADD     A,R0
        CLR     C
        SUBB    A,#0xe
        JNC     ??halGetJoyKeyInput_4
//  475     {
//  476       ksave0 |= HAL_KEY_LEFT;
        MOV     A,R6
        SETB    0xE0 /* A   */.3
        SJMP    ??halGetJoyKeyInput_2
//  477     }
//  478     else if ((adc >= 39) && (adc <= 59))
??halGetJoyKeyInput_4:
        MOV     A,#-0x27
        ADD     A,R0
        CLR     C
        SUBB    A,#0x15
        JNC     ??halGetJoyKeyInput_5
//  479     {
//  480       ksave0 |= HAL_KEY_DOWN;
        MOV     A,R6
        SETB    0xE0 /* A   */.4
        SJMP    ??halGetJoyKeyInput_2
//  481     }
//  482     else if ((adc >= 89) && (adc <= 100))
??halGetJoyKeyInput_5:
        MOV     A,#-0x59
        ADD     A,R0
        CLR     C
        SUBB    A,#0xc
        JNC     ??halGetJoyKeyInput_6
//  483     {
//  484       ksave0 |= HAL_KEY_CENTER;
        MOV     A,R6
        SETB    0xE0 /* A   */.2
??halGetJoyKeyInput_2:
        MOV     R6,A
//  485     }
//  486   } while (ksave0 != ksave1);
??halGetJoyKeyInput_6:
        MOV     A,R7
        XRL     A,R6
        JNZ     ??halGetJoyKeyInput_0
//  487 
//  488   return ksave0;
        MOV     A,R6
        MOV     R1,A
        LJMP    ?Subroutine1 & 0xFFFF
//  489 }
//  490 #endif
//  491 
//  492 /**************************************************************************************************
//  493  * @fn      halProcessKeyInterrupt
//  494  *
//  495  * @brief   Checks to see if it's a valid key interrupt, saves interrupt driven key states for
//  496  *          processing by HalKeyRead(), and debounces keys by scheduling HalKeyRead() 25ms later.
//  497  *
//  498  * @param
//  499  *
//  500  * @return
//  501  **************************************************************************************************/

        RSEG BANKED_CODE:CODE:NOROOT(0)
//  502 void halProcessKeyInterrupt (void)
halProcessKeyInterrupt:
        CODE
//  503 {
        PUSH    DPL
        PUSH    DPH
        ; Saved register size: 2
        ; Auto size: 0
//  504   bool valid=FALSE;
        MOV     R0,#0x0
//  505 
//  506 #if defined ( CC2540_MINIDK )
//  507   if( HAL_KEY_SW_1_PXIFG & HAL_KEY_SW_1_BIT) /* Interrupt Flag has been set by SW1 */
//  508   {
//  509     HAL_KEY_SW_1_PXIFG = ~(HAL_KEY_SW_1_BIT); /* Clear Interrupt Flag */
//  510     valid = TRUE;
//  511   }
//  512 
//  513   if (HAL_KEY_SW_2_PXIFG & HAL_KEY_SW_2_BIT)  /* Interrupt Flag has been set by SW2 */
//  514   {
//  515     HAL_KEY_SW_2_PXIFG = ~(HAL_KEY_SW_2_BIT); /* Clear Interrupt Flag */
//  516     valid = TRUE;
//  517   }
//  518 #else
//  519   if (HAL_KEY_SW_6_PXIFG & HAL_KEY_SW_6_BIT)  /* Interrupt Flag has been set */
        MOV     A,0x89
        MOV     C,0xE0 /* A   */.1
        JNC     ??halProcessKeyInterrupt_0
//  520   {
//  521     HAL_KEY_SW_6_PXIFG = ~(HAL_KEY_SW_6_BIT); /* Clear Interrupt Flag */
        MOV     0x89,#-0x3
//  522     valid = TRUE;
        INC     R0
//  523   }
//  524 
//  525   if (HAL_KEY_JOY_MOVE_PXIFG & HAL_KEY_JOY_MOVE_BIT)  /* Interrupt Flag has been set */
??halProcessKeyInterrupt_0:
        MOV     A,0x8b
        MOV     C,0xE0 /* A   */.0
        JNC     ??halProcessKeyInterrupt_1
//  526   {
//  527     HAL_KEY_JOY_MOVE_PXIFG = ~(HAL_KEY_JOY_MOVE_BIT); /* Clear Interrupt Flag */
        MOV     0x8b,#-0x2
//  528     valid = TRUE;
        SJMP    ??halProcessKeyInterrupt_2
//  529   }
//  530 #endif
//  531   if (valid)
??halProcessKeyInterrupt_1:
        MOV     A,R0
        MOV     C,0xE0 /* A   */.0
        JNC     ??halProcessKeyInterrupt_3
//  532   {
//  533     osal_start_timerEx (Hal_TaskID, HAL_KEY_EVENT, HAL_KEY_DEBOUNCE_VALUE);
??halProcessKeyInterrupt_2:
        ; Setup parameters for call to function osal_start_timerEx
        MOV     DPTR,#__Constant_19
        LCALL   ?PUSH_XSTACK8_X_FOUR
        MOV     R2,#0x10
        MOV     R3,#0x0
        MOV     DPTR,#Hal_TaskID
        MOVX    A,@DPTR
        MOV     R1,A
        LCALL   ??osal_start_timerEx?relay
        MOV     A,#0x4
        LCALL   ?DEALLOC_XSTACK8
//  534   }
//  535 }
??halProcessKeyInterrupt_3:
        LJMP    ?Subroutine0 & 0xFFFF
        REQUIRE P0IFG
        REQUIRE P2IFG
//  536 
//  537 /**************************************************************************************************
//  538  * @fn      HalKeyEnterSleep
//  539  *
//  540  * @brief  - Get called to enter sleep mode
//  541  *
//  542  * @param
//  543  *
//  544  * @return
//  545  **************************************************************************************************/

        RSEG BANKED_CODE:CODE:NOROOT(0)
//  546 void HalKeyEnterSleep ( void )
HalKeyEnterSleep:
        CODE
//  547 {
        ; Saved register size: 0
        ; Auto size: 0
//  548 }
        LJMP    ?BRET
//  549 
//  550 /**************************************************************************************************
//  551  * @fn      HalKeyExitSleep
//  552  *
//  553  * @brief   - Get called when sleep is over
//  554  *
//  555  * @param
//  556  *
//  557  * @return  - return saved keys
//  558  **************************************************************************************************/

        RSEG BANKED_CODE:CODE:NOROOT(0)
//  559 uint8 HalKeyExitSleep ( void )
HalKeyExitSleep:
        CODE
//  560 {
        PUSH    DPL
        PUSH    DPH
        ; Saved register size: 2
        ; Auto size: 0
//  561   /* Wake up and read keys */
//  562   return ( HalKeyRead () );
        ; Setup parameters for call to function HalKeyRead
        LCALL   ??HalKeyRead?relay
        LJMP    ?Subroutine0 & 0xFFFF
//  563 }
//  564 
//  565 /***************************************************************************************************
//  566  *                                    INTERRUPT SERVICE ROUTINE
//  567  ***************************************************************************************************/
//  568 
//  569 /**************************************************************************************************
//  570  * @fn      halKeyPort0Isr
//  571  *
//  572  * @brief   Port0 ISR
//  573  *
//  574  * @param
//  575  *
//  576  * @return
//  577  **************************************************************************************************/
//  578 //HAL_ISR_FUNCTION( halKeyPort0Isr, P0INT_VECTOR )
//  579 //{
//  580 //  HAL_ENTER_ISR();
//  581 //
//  582 //#if defined ( CC2540_MINIDK )
//  583 //  if ((HAL_KEY_SW_1_PXIFG & HAL_KEY_SW_1_BIT) || (HAL_KEY_SW_2_PXIFG & HAL_KEY_SW_2_BIT))
//  584 //#else
//  585 //  if (HAL_KEY_SW_6_PXIFG & HAL_KEY_SW_6_BIT)
//  586 //#endif
//  587 //  {
//  588 //    halProcessKeyInterrupt();
//  589 //  }
//  590 //
//  591 //  /*
//  592 //    Clear the CPU interrupt flag for Port_0
//  593 //    PxIFG has to be cleared before PxIF
//  594 //  */
//  595 //#if defined ( CC2540_MINIDK )
//  596 //  HAL_KEY_SW_1_PXIFG = 0;
//  597 //  HAL_KEY_SW_2_PXIFG = 0;
//  598 //#else
//  599 //  HAL_KEY_SW_6_PXIFG = 0;
//  600 //#endif
//  601 //  HAL_KEY_CPU_PORT_0_IF = 0;
//  602 //
//  603 //  CLEAR_SLEEP_MODE();
//  604 //
//  605 //  HAL_EXIT_ISR();
//  606 //
//  607 //  return;
//  608 //}
//  609 
//  610 #if !defined ( CC2540_MINIDK )
//  611 /**************************************************************************************************
//  612  * @fn      halKeyPort2Isr
//  613  *
//  614  * @brief   Port2 ISR
//  615  *
//  616  * @param
//  617  *
//  618  * @return
//  619  **************************************************************************************************/

        RSEG NEAR_CODE:CODE:NOROOT(0)
//  620 HAL_ISR_FUNCTION( halKeyPort2Isr, P2INT_VECTOR )
halKeyPort2Isr:
        CODE
//  621 {
        PUSH    A
        MOV     A,#-0xe
        LCALL   ?INTERRUPT_ENTER_XSP
        ; Saved register size: 14
        ; Auto size: 0
//  622   HAL_ENTER_ISR();
        MOV     C,0xa8.7
        CLR     A
        RLC     A
        MOV     R6,A
        SETB    0xa8.7
//  623 
//  624   if (HAL_KEY_JOY_MOVE_PXIFG & HAL_KEY_JOY_MOVE_BIT)
        MOV     A,0x8b
        MOV     C,0xE0 /* A   */.0
        JNC     ??halKeyPort2Isr_0
//  625   {
//  626     halProcessKeyInterrupt();
        ; Setup parameters for call to function halProcessKeyInterrupt
        LCALL   ??halProcessKeyInterrupt?relay
//  627   }
//  628 
//  629   /*
//  630     Clear the CPU interrupt flag for Port_2
//  631     PxIFG has to be cleared before PxIF
//  632     Notes: P2_1 and P2_2 are debug lines.
//  633   */
//  634   HAL_KEY_JOY_MOVE_PXIFG = 0;
??halKeyPort2Isr_0:
        MOV     0x8b,#0x0
//  635   HAL_KEY_CPU_PORT_2_IF = 0;
        CLR     0xe8.0
//  636 
//  637   CLEAR_SLEEP_MODE();
//  638 
//  639   HAL_EXIT_ISR();
        MOV     A,R6
        MOV     C,0xE0 /* A   */.0
        MOV     0xa8.7,C
//  640 
//  641   return;
        MOV     R7,#0x1
        LJMP    ?INTERRUPT_LEAVE_XSP
        REQUIRE _A_IEN0
        REQUIRE P2IFG
        REQUIRE _A_IRCON2
//  642 }

        COMMON INTVEC:CODE:ROOT(0)
        ORG 51
`??halKeyPort2Isr??INTVEC 51`:
        LJMP       (halKeyPort2Isr)

        RSEG XDATA_ROM_C:CONST:REORDER:NOROOT(0)
        DATA32
__Constant_19:
        DD 25

        RSEG BANK_RELAYS:CODE:REORDER:NOROOT(0)
??HalKeyInit?relay:
        CODE
        LCALL   ?BDISPATCH
        DATA24
        DC24    HalKeyInit

        RSEG BANK_RELAYS:CODE:REORDER:NOROOT(0)
??HalKeyConfig?relay:
        CODE
        LCALL   ?BDISPATCH
        DATA24
        DC24    HalKeyConfig

        RSEG BANK_RELAYS:CODE:REORDER:NOROOT(0)
??HalKeyRead?relay:
        CODE
        LCALL   ?BDISPATCH
        DATA24
        DC24    HalKeyRead

        RSEG BANK_RELAYS:CODE:REORDER:NOROOT(0)
??HalKeyPoll?relay:
        CODE
        LCALL   ?BDISPATCH
        DATA24
        DC24    HalKeyPoll

        RSEG BANK_RELAYS:CODE:REORDER:NOROOT(0)
??halGetJoyKeyInput?relay:
        CODE
        LCALL   ?BDISPATCH
        DATA24
        DC24    halGetJoyKeyInput

        RSEG BANK_RELAYS:CODE:REORDER:NOROOT(0)
??halProcessKeyInterrupt?relay:
        CODE
        LCALL   ?BDISPATCH
        DATA24
        DC24    halProcessKeyInterrupt

        RSEG BANK_RELAYS:CODE:REORDER:NOROOT(0)
??HalKeyEnterSleep?relay:
        CODE
        LCALL   ?BDISPATCH
        DATA24
        DC24    HalKeyEnterSleep

        RSEG BANK_RELAYS:CODE:REORDER:NOROOT(0)
??HalKeyExitSleep?relay:
        CODE
        LCALL   ?BDISPATCH
        DATA24
        DC24    HalKeyExitSleep

        END
//  643 #endif
//  644 #else
//  645 
//  646 void HalKeyInit(void){}
//  647 void HalKeyConfig(bool interruptEnable, halKeyCBack_t cback){}
//  648 uint8 HalKeyRead(void){ return 0;}
//  649 void HalKeyPoll(void){}
//  650 
//  651 #endif
//  652 /**************************************************************************************************
//  653 **************************************************************************************************/
// 
// 418 bytes in segment BANKED_CODE
//  48 bytes in segment BANK_RELAYS
//   3 bytes in segment INTVEC
//  38 bytes in segment NEAR_CODE
//  16 bytes in segment SFR_AN
//   4 bytes in segment XDATA_ROM_C
//   5 bytes in segment XDATA_Z
// 
// 504 bytes of CODE  memory (+  3 bytes shared)
//   0 bytes of CONST memory (+  4 bytes shared)
//   0 bytes of DATA  memory (+ 16 bytes shared)
//   5 bytes of XDATA memory
//
//Errors: none
//Warnings: none
