///////////////////////////////////////////////////////////////////////////////
//                                                                            /
// IAR C/C++ Compiler V8.20.1.40829 for 8051            18/Jun/2014  16:46:25 /
// Copyright 2004-2012 IAR Systems AB.                                        /
//                                                                            /
//    Core               =  plain                                             /
//    Code model         =  banked                                            /
//    Data model         =  large                                             /
//    Calling convention =  xdata reentrant                                   /
//    Constant location  =  data_rom                                          /
//    Dptr setup         =  1,16                                              /
//                                                                            /
//    Source file        =  D:\NTHU\¬ã¨s\Important\ThesisCode\Code\GitLabClou /
//                          d\NewEcoExec\codegenerator\Device\EcoBT\Component /
//                          s\osal\common\osal_bufmgr.c                       /
//    Command line       =  -f D:\NTHU\¬ã¨s\Important\ThesisCode\Code\GitLabC /
//                          loud\NewEcoExec\codegenerator\Device\EcoBT\Projec /
//                          t\ble\CodeGenerator\CC2540DB\..\..\config\buildCo /
//                          mponents.cfg (-DBROADCASTER_CFG=0x01              /
//                          -DOBSERVER_CFG=0x02 -DPERIPHERAL_CFG=0x04         /
//                          -DCENTRAL_CFG=0x08 -DADV_NCONN_CFG=0x01           /
//                          -DADV_CONN_CFG=0x02 -DSCAN_CFG=0x04               /
//                          -DINIT_CFG=0x08 -DADV_CFG=ADV_NCONN_CFG+ADV_CONN_ /
//                          CFG -DLINK_CFG=ADV_CONN_CFG+INIT_CFG              /
//                          -DFULL_CFG=INIT_CFG+SCAN_CFG+ADV_NCONN_CFG+ADV_CO /
//                          NN_CFG) -f D:\NTHU\¬ã¨s\Important\ThesisCode\Code /
//                          \GitLabCloud\NewEcoExec\codegenerator\Device\EcoB /
//                          T\Project\ble\CodeGenerator\CC2540DB\buildConfig. /
//                          cfg (-DHOST_CONFIG=PERIPHERAL_CFG                 /
//                          -DGAP_PRIVACY_RECONNECT)                          /
//                          D:\NTHU\¬ã¨s\Important\ThesisCode\Code\GitLabClou /
//                          d\NewEcoExec\codegenerator\Device\EcoBT\Component /
//                          s\osal\common\osal_bufmgr.c -D INT_HEAP_LEN=900   /
//                          -D HALNODEBUG -D OSAL_CBTIMER_NUM_TASKS=1 -D      /
//                          HAL_AES_DMA=TRUE -D HAL_DMA=TRUE -D               /
//                          xPOWER_SAVING -D xPLUS_BROADCASTER -D             /
//                          HAL_LCD=FALSE -D HAL_LED=TRUE -D HAL_ADC=TRUE     /
//                          -lB D:\NTHU\¬ã¨s\Important\ThesisCode\Code\GitLab /
//                          Cloud\NewEcoExec\codegenerator\Device\EcoBT\Proje /
//                          ct\ble\CodeGenerator\CC2540DB\CC2540\List\ -o     /
//                          D:\NTHU\¬ã¨s\Important\ThesisCode\Code\GitLabClou /
//                          d\NewEcoExec\codegenerator\Device\EcoBT\Project\b /
//                          le\CodeGenerator\CC2540DB\CC2540\Obj\ -e --debug  /
//                          --core=plain --dptr=16,1 --data_model=large       /
//                          --code_model=banked --calling_convention=xdata_re /
//                          entrant --place_constants=data_rom                /
//                          --nr_virtual_regs 16 -I                           /
//                          D:\NTHU\¬ã¨s\Important\ThesisCode\Code\GitLabClou /
//                          d\NewEcoExec\codegenerator\Device\EcoBT\Project\b /
//                          le\CodeGenerator\CC2540DB\..\..\common\ -I        /
//                          D:\NTHU\¬ã¨s\Important\ThesisCode\Code\GitLabClou /
//                          d\NewEcoExec\codegenerator\Device\EcoBT\Project\b /
//                          le\CodeGenerator\CC2540DB\..\..\include\ -I       /
//                          D:\NTHU\¬ã¨s\Important\ThesisCode\Code\GitLabClou /
//                          d\NewEcoExec\codegenerator\Device\EcoBT\Project\b /
//                          le\CodeGenerator\CC2540DB\..\..\..\..\Components\ /
//                          hal\include\ -I D:\NTHU\¬ã¨s\Important\ThesisCode /
//                          \Code\GitLabCloud\NewEcoExec\codegenerator\Device /
//                          \EcoBT\Project\ble\CodeGenerator\CC2540DB\..\..\. /
//                          .\..\Components\hal\target\CC2540EB\ -I           /
//                          D:\NTHU\¬ã¨s\Important\ThesisCode\Code\GitLabClou /
//                          d\NewEcoExec\codegenerator\Device\EcoBT\Project\b /
//                          le\CodeGenerator\CC2540DB\..\..\..\..\Components\ /
//                          osal\include\ -I D:\NTHU\¬ã¨s\Important\ThesisCod /
//                          e\Code\GitLabCloud\NewEcoExec\codegenerator\Devic /
//                          e\EcoBT\Project\ble\CodeGenerator\CC2540DB\..\..\ /
//                          ..\..\Components\services\saddr\ -I               /
//                          D:\NTHU\¬ã¨s\Important\ThesisCode\Code\GitLabClou /
//                          d\NewEcoExec\codegenerator\Device\EcoBT\Project\b /
//                          le\CodeGenerator\CC2540DB\..\..\..\..\Components\ /
//                          ble\include\ -I D:\NTHU\¬ã¨s\Important\ThesisCode /
//                          \Code\GitLabCloud\NewEcoExec\codegenerator\Device /
//                          \EcoBT\Project\ble\CodeGenerator\CC2540DB\..\..\. /
//                          .\..\Components\ble\controller\phy\ -I            /
//                          D:\NTHU\¬ã¨s\Important\ThesisCode\Code\GitLabClou /
//                          d\NewEcoExec\codegenerator\Device\EcoBT\Project\b /
//                          le\CodeGenerator\CC2540DB\..\..\..\..\Components\ /
//                          ble\controller\include\ -I                        /
//                          D:\NTHU\¬ã¨s\Important\ThesisCode\Code\GitLabClou /
//                          d\NewEcoExec\codegenerator\Device\EcoBT\Project\b /
//                          le\CodeGenerator\CC2540DB\..\..\..\..\Components\ /
//                          ble\hci\ -I D:\NTHU\¬ã¨s\Important\ThesisCode\Cod /
//                          e\GitLabCloud\NewEcoExec\codegenerator\Device\Eco /
//                          BT\Project\ble\CodeGenerator\CC2540DB\..\..\..\.. /
//                          \Components\ble\host\ -I                          /
//                          D:\NTHU\¬ã¨s\Important\ThesisCode\Code\GitLabClou /
//                          d\NewEcoExec\codegenerator\Device\EcoBT\Project\b /
//                          le\CodeGenerator\CC2540DB\..\..\common\cc2540\    /
//                          -I D:\NTHU\¬ã¨s\Important\ThesisCode\Code\GitLabC /
//                          loud\NewEcoExec\codegenerator\Device\EcoBT\Projec /
//                          t\ble\CodeGenerator\CC2540DB\..\..\common\npi\npi /
//                          _np\ -I D:\NTHU\¬ã¨s\Important\ThesisCode\Code\Gi /
//                          tLabCloud\NewEcoExec\codegenerator\Device\EcoBT\P /
//                          roject\ble\CodeGenerator\CC2540DB\..\..\Profiles\ /
//                          Roles\ -I D:\NTHU\¬ã¨s\Important\ThesisCode\Code\ /
//                          GitLabCloud\NewEcoExec\codegenerator\Device\EcoBT /
//                          \Project\ble\CodeGenerator\CC2540DB\..\..\Profile /
//                          s\SimpleProfile\ -I D:\NTHU\¬ã¨s\Important\Thesis /
//                          Code\Code\GitLabCloud\NewEcoExec\codegenerator\De /
//                          vice\EcoBT\Project\ble\CodeGenerator\CC2540DB\..\ /
//                          ..\Profiles\DevInfo\ -I                           /
//                          D:\NTHU\¬ã¨s\Important\ThesisCode\Code\GitLabClou /
//                          d\NewEcoExec\codegenerator\Device\EcoBT\Project\b /
//                          le\CodeGenerator\CC2540DB\..\..\Profiles\Accelero /
//                          meter\ -I D:\NTHU\¬ã¨s\Important\ThesisCode\Code\ /
//                          GitLabCloud\NewEcoExec\codegenerator\Device\EcoBT /
//                          \Project\ble\CodeGenerator\CC2540DB\..\..\Profile /
//                          s\EcoExecGATTProfile\ -I                          /
//                          D:\NTHU\¬ã¨s\Important\ThesisCode\Code\GitLabClou /
//                          d\NewEcoExec\codegenerator\Device\EcoBT\Project\b /
//                          le\CodeGenerator\CC2540DB\..\..\Profiles\Batt\    /
//                          -I D:\NTHU\¬ã¨s\Important\ThesisCode\Code\GitLabC /
//                          loud\NewEcoExec\codegenerator\Device\EcoBT\Projec /
//                          t\ble\CodeGenerator\CC2540DB\..\..\Profiles\HIDDe /
//                          v\ -Ohz                                           /
//    List file          =  D:\NTHU\¬ã¨s\Important\ThesisCode\Code\GitLabClou /
//                          d\NewEcoExec\codegenerator\Device\EcoBT\Project\b /
//                          le\CodeGenerator\CC2540DB\CC2540\List\osal_bufmgr /
//                          .s51                                              /
//                                                                            /
//                                                                            /
///////////////////////////////////////////////////////////////////////////////

        NAME osal_bufmgr

        RSEG DOVERLAY:DATA:NOROOT(0)
        RSEG IOVERLAY:IDATA:NOROOT(0)
        RSEG ISTACK:IDATA:NOROOT(0)
        RSEG PSTACK:XDATA:NOROOT(0)
        RSEG XSTACK:XDATA:NOROOT(0)

        EXTERN ?BANKED_ENTER_XDATA
        EXTERN ?BANKED_LEAVE_XDATA
        EXTERN ?BDISPATCH
        EXTERN ?BRET
        EXTERN ?V0
        EXTERN __INIT_XDATA_Z

        PUBLIC ??osal_bm_adjust_header?relay
        PUBLIC ??osal_bm_adjust_tail?relay
        PUBLIC ??osal_bm_alloc?relay
        PUBLIC ??osal_bm_free?relay
        PUBLIC osal_bm_adjust_header
        PUBLIC osal_bm_adjust_tail
        PUBLIC osal_bm_alloc
        PUBLIC osal_bm_free

osal_mem_alloc      SYMBOL "osal_mem_alloc"
??osal_mem_alloc?relay SYMBOL "?relay", osal_mem_alloc
osal_mem_free       SYMBOL "osal_mem_free"
??osal_mem_free?relay SYMBOL "?relay", osal_mem_free
osal_bm_adjust_header SYMBOL "osal_bm_adjust_header"
??osal_bm_adjust_header?relay SYMBOL "?relay", osal_bm_adjust_header
osal_bm_adjust_tail SYMBOL "osal_bm_adjust_tail"
??osal_bm_adjust_tail?relay SYMBOL "?relay", osal_bm_adjust_tail
osal_bm_alloc       SYMBOL "osal_bm_alloc"
??osal_bm_alloc?relay SYMBOL "?relay", osal_bm_alloc
osal_bm_free        SYMBOL "osal_bm_free"
??osal_bm_free?relay SYMBOL "?relay", osal_bm_free

        EXTERN ??osal_mem_alloc?relay
        EXTERN ??osal_mem_free?relay
        EXTERN osal_mem_alloc
        EXTERN osal_mem_free

// D:\NTHU\¬ã¨s\Important\ThesisCode\Code\GitLabCloud\NewEcoExec\codegenerator\Device\EcoBT\Components\osal\common\osal_bufmgr.c
//    1 /**************************************************************************************************
//    2   Filename:       osal_bufmgr.c
//    3   Revised:        $Date: 2009-01-29 09:58:32 -0800 (Thu, 29 Jan 2009) $
//    4   Revision:       $Revision: 18882 $
//    5 
//    6   Description:    This file contains the buffer management APIs. These APIs 
//    7                   are not reentrant hence cannot be called from an interrupt
//    8                   contex.
//    9 
//   10 
//   11   Copyright 2008-2009 Texas Instruments Incorporated. All rights reserved.
//   12 
//   13   IMPORTANT: Your use of this Software is limited to those specific rights
//   14   granted under the terms of a software license agreement between the user
//   15   who downloaded the software, his/her employer (which must be your employer)
//   16   and Texas Instruments Incorporated (the "License").  You may not use this
//   17   Software unless you agree to abide by the terms of the License. The License
//   18   limits your use, and you acknowledge, that the Software may not be modified,
//   19   copied or distributed unless embedded on a Texas Instruments microcontroller
//   20   or used solely and exclusively in conjunction with a Texas Instruments radio
//   21   frequency transceiver, which is integrated into your product.  Other than for
//   22   the foregoing purpose, you may not use, reproduce, copy, prepare derivative
//   23   works of, modify, distribute, perform, display or sell this Software and/or
//   24   its documentation for any purpose.
//   25 
//   26   YOU FURTHER ACKNOWLEDGE AND AGREE THAT THE SOFTWARE AND DOCUMENTATION ARE
//   27   PROVIDED “AS IS” WITHOUT WARRANTY OF ANY KIND, EITHER EXPRESS OR IMPLIED, 
//   28   INCLUDING WITHOUT LIMITATION, ANY WARRANTY OF MERCHANTABILITY, TITLE, 
//   29   NON-INFRINGEMENT AND FITNESS FOR A PARTICULAR PURPOSE. IN NO EVENT SHALL
//   30   TEXAS INSTRUMENTS OR ITS LICENSORS BE LIABLE OR OBLIGATED UNDER CONTRACT,
//   31   NEGLIGENCE, STRICT LIABILITY, CONTRIBUTION, BREACH OF WARRANTY, OR OTHER
//   32   LEGAL EQUITABLE THEORY ANY DIRECT OR INDIRECT DAMAGES OR EXPENSES
//   33   INCLUDING BUT NOT LIMITED TO ANY INCIDENTAL, SPECIAL, INDIRECT, PUNITIVE
//   34   OR CONSEQUENTIAL DAMAGES, LOST PROFITS OR LOST DATA, COST OF PROCUREMENT
//   35   OF SUBSTITUTE GOODS, TECHNOLOGY, SERVICES, OR ANY CLAIMS BY THIRD PARTIES
//   36   (INCLUDING BUT NOT LIMITED TO ANY DEFENSE THEREOF), OR OTHER SIMILAR COSTS.
//   37 
//   38   Should you have any questions regarding your right to use this Software,
//   39   contact Texas Instruments Incorporated at www.TI.com. 
//   40 **************************************************************************************************/
//   41 
//   42 
//   43 /*********************************************************************
//   44  * INCLUDES
//   45  */
//   46 #include "OSAL.h"
//   47 #include "OnBoard.h"
//   48 
//   49 #include "osal_bufmgr.h"
//   50 
//   51 /*********************************************************************
//   52  * MACROS
//   53  */
//   54 // 'bd_ptr' used with these macros must be of the type 'bm_desc_t *'
//   55 #define START_PTR( bd_ptr )  ( (bd_ptr) + 1 )
//   56 #define END_PTR( bd_ptr )    ( (uint8 *)START_PTR( bd_ptr ) + (bd_ptr)->payload_len )
//   57 
//   58 /*********************************************************************
//   59  * CONSTANTS
//   60  */
//   61 
//   62 /*********************************************************************
//   63  * TYPEDEFS
//   64  */
//   65 typedef struct bm_desc
//   66 {
//   67   struct bm_desc *next_ptr;    // pointer to next buffer descriptor
//   68   uint16          payload_len; // length of user's buffer
//   69 } bm_desc_t;
//   70 
//   71 /*********************************************************************
//   72  * GLOBAL VARIABLES
//   73  */
//   74 
//   75 /*********************************************************************
//   76  * GLOBAL FUNCTIONS
//   77  */
//   78 
//   79 /*********************************************************************
//   80  * LOCAL VARIABLES
//   81  */
//   82 // Linked list of allocated buffer descriptors

        RSEG XDATA_Z:XDATA:NOROOT(0)
        DATA16
//   83 static bm_desc_t *bm_list_ptr = NULL;
bm_list_ptr:
        DS 2
        REQUIRE __INIT_XDATA_Z
//   84 
//   85 /*********************************************************************
//   86  * LOCAL FUNCTIONS
//   87  */
//   88 static bm_desc_t *bm_desc_from_payload ( uint8 *payload_ptr );
//   89 
//   90 /*********************************************************************
//   91  * @fn      osal_bm_alloc
//   92  *
//   93  * @brief   Implementation of the allocator functionality.
//   94  *
//   95  *          WARNING: THIS FUNCTION CAN BE CALLED ONLY FROM THE BOTTOM
//   96  *                   LAYER OF THE STACK (HCI FOR DUAL MODE AND LINK 
//   97  *                   LAYER FOR SINGLE MODE).
//   98  *
//   99  * @param   size - number of bytes to allocate from the heap.
//  100  *
//  101  * @return  pointer to the heap allocation; NULL if error or failure.
//  102  */

        RSEG BANKED_CODE:CODE:NOROOT(0)
//  103 void *osal_bm_alloc( uint16 size )
osal_bm_alloc:
        CODE
//  104 {
        MOV     A,#-0xa
        LCALL   ?BANKED_ENTER_XDATA
        ; Saved register size: 10
        ; Auto size: 0
        MOV     A,R2
        MOV     R6,A
        MOV     A,R3
        MOV     R7,A
//  105   bm_desc_t *bd_ptr;
//  106   
//  107   bd_ptr = osal_mem_alloc( sizeof( bm_desc_t ) + size );
        ; Setup parameters for call to function osal_mem_alloc
        MOV     A,R6
        ADD     A,#0x4
        MOV     R2,A
        MOV     A,R7
        ADDC    A,#0x0
        MOV     R3,A
        LCALL   ??osal_mem_alloc?relay
        MOV     ?V0 + 0,R2
        MOV     ?V0 + 1,R3
        MOV     R0,?V0 + 0
        MOV     R1,?V0 + 1
//  108   if ( bd_ptr != NULL )
        MOV     A,R0
        ORL     A,R1
        JZ      ??osal_bm_alloc_0
//  109   {
//  110     // set the buffer descriptor info
//  111     bd_ptr->payload_len  = size;
        MOV     DPL,R0
        MOV     DPH,R1
        INC     DPTR
        INC     DPTR
        MOV     A,R6
        MOVX    @DPTR,A
        INC     DPTR
        MOV     A,R7
        MOVX    @DPTR,A
//  112     
//  113     // add item to the beginning of the list
//  114     bd_ptr->next_ptr = bm_list_ptr;
        LCALL   ?Subroutine3 & 0xFFFF
??CrossCallReturnLabel_8:
        MOV     DPL,R0
        MOV     DPH,R1
        MOV     A,R2
        MOVX    @DPTR,A
        INC     DPTR
        MOV     A,R3
        MOVX    @DPTR,A
//  115     bm_list_ptr = bd_ptr;
        MOV     DPTR,#bm_list_ptr
        MOV     A,R0
        MOVX    @DPTR,A
        INC     DPTR
        MOV     A,R1
        MOVX    @DPTR,A
//  116     
//  117     // return start of the buffer
//  118     return ( (void *)START_PTR( bd_ptr ) );
        MOV     A,R0
        ADD     A,#0x4
        MOV     R2,A
        MOV     A,R1
        ADDC    A,#0x0
        MOV     R3,A
        SJMP    ??osal_bm_alloc_1
//  119   }
//  120 
//  121   return ( (void *)NULL );
??osal_bm_alloc_0:
        MOV     R2,#0x0
        MOV     R3,#0x0
??osal_bm_alloc_1:
        MOV     R7,#0x2
        LJMP    ?BANKED_LEAVE_XDATA
//  122 }
//  123 
//  124 /*********************************************************************
//  125  * @fn      osal_bm_free
//  126  *
//  127  * @brief   Implementation of the de-allocator functionality.
//  128  *
//  129  * @param   payload_ptr - pointer to the memory to free.
//  130  *
//  131  * @return  none
//  132  */

        RSEG BANKED_CODE:CODE:NOROOT(0)
//  133 void osal_bm_free( void *payload_ptr )
osal_bm_free:
        CODE
//  134 {
        MOV     A,#-0x9
        LCALL   ?BANKED_ENTER_XDATA
        ; Saved register size: 9
        ; Auto size: 0
        MOV     A,R2
        MOV     R0,A
        MOV     A,R3
        MOV     R1,A
//  135   bm_desc_t *loop_ptr;
//  136   bm_desc_t *prev_ptr = NULL;
        MOV     R4,#0x0
        MOV     R5,#0x0
//  137   
//  138   loop_ptr = bm_list_ptr;
        LCALL   ?Subroutine3 & 0xFFFF
??CrossCallReturnLabel_9:
        MOV     A,R0
        MOV     R6,A
        MOV     A,R1
        MOV     R7,A
        SJMP    ??CrossCallReturnLabel_6
//  139   while ( loop_ptr != NULL )
//  140   {
//  141     if ( payload_ptr >= (void *)START_PTR( loop_ptr ) &&
//  142          payload_ptr <= (void *)END_PTR( loop_ptr) )
//  143     {
//  144       // unlink item from the linked list
//  145       if ( prev_ptr == NULL )
//  146       {
//  147         // it's the first item on the list
//  148         bm_list_ptr = loop_ptr->next_ptr;
//  149       }
//  150       else
//  151       {
//  152         prev_ptr->next_ptr = loop_ptr->next_ptr;
//  153       }
//  154 
//  155       // free the memory
//  156       osal_mem_free( loop_ptr );
//  157 
//  158       // we're done here
//  159       break;
//  160     }
//  161     
//  162     // move on to next item
//  163     prev_ptr = loop_ptr;
??osal_bm_free_0:
        MOV     A,R2
        MOV     R4,A
        MOV     A,R3
        MOV     R5,A
//  164     loop_ptr = loop_ptr->next_ptr;
        MOV     DPL,R2
        MOV     DPH,R3
        LCALL   ??Subroutine4_0 & 0xFFFF
??CrossCallReturnLabel_6:
        MOV     A,R2
        ORL     A,R3
        JZ      ??osal_bm_free_1
        MOV     A,R2
        ADD     A,#0x4
        MOV     R0,A
        MOV     A,R3
        ADDC    A,#0x0
        MOV     R1,A
        CLR     C
        MOV     A,R6
        SUBB    A,R0
        MOV     A,R7
        SUBB    A,R1
        JC      ??osal_bm_free_0
        MOV     DPL,R2
        MOV     DPH,R3
        INC     DPTR
        INC     DPTR
        LCALL   ?Subroutine2 & 0xFFFF
??CrossCallReturnLabel_2:
        MOV     A,R2
        ADD     A,R0
        MOV     DPL,A
        MOV     A,R3
        ADDC    A,R1
        MOV     DPH,A
        INC     DPTR
        INC     DPTR
        INC     DPTR
        INC     DPTR
        CLR     C
        MOV     A,DPL
        SUBB    A,R6
        MOV     A,DPH
        SUBB    A,R7
        JC      ??osal_bm_free_0
        MOV     DPL,R2
        MOV     DPH,R3
        LCALL   ?Subroutine2 & 0xFFFF
??CrossCallReturnLabel_3:
        MOV     A,R4
        ORL     A,R5
        JNZ     ??osal_bm_free_2
        MOV     DPTR,#bm_list_ptr
        SJMP    ??osal_bm_free_3
??osal_bm_free_2:
        MOV     DPL,R4
        MOV     DPH,R5
??osal_bm_free_3:
        MOV     A,R0
        MOVX    @DPTR,A
        INC     DPTR
        MOV     A,R1
        MOVX    @DPTR,A
        ; Setup parameters for call to function osal_mem_free
        LCALL   ??osal_mem_free?relay
//  165   }
//  166 }
??osal_bm_free_1:
        MOV     R7,#0x1
        LJMP    ?BANKED_LEAVE_XDATA
//  167 
//  168 /*********************************************************************
//  169  * @fn      osal_bm_adjust_header
//  170  *
//  171  * @brief   Add or remove header space for the payload pointer. A positive
//  172  *          adjustment adds header space, and negative removes header space.
//  173  *
//  174  * @param   payload_ptr - pointer to payload
//  175  * @param   size - +/- number of bytes to move (affecting header area)
//  176  *
//  177  * @return  pointer to payload at the new adjusted location
//  178  */

        RSEG BANKED_CODE:CODE:NOROOT(0)
//  179 void *osal_bm_adjust_header( void *payload_ptr, int16 size )
osal_bm_adjust_header:
        CODE
//  180 {
        MOV     A,#-0xc
        LCALL   ?BANKED_ENTER_XDATA
        ; Saved register size: 12
        ; Auto size: 0
        MOV     A,R2
        MOV     R6,A
        MOV     A,R3
        MOV     R7,A
        MOV     ?V0 + 0,R4
        MOV     ?V0 + 1,R5
//  181   bm_desc_t *bd_ptr;
//  182   uint8 *new_payload_ptr;
//  183   
//  184   bd_ptr = bm_desc_from_payload( (uint8 *)payload_ptr );
        ; Setup parameters for call to function bm_desc_from_payload
        LCALL   ??bm_desc_from_payload?relay
        MOV     ?V0 + 2,R2
        MOV     ?V0 + 3,R3
        MOV     R0,?V0 + 2
        MOV     R1,?V0 + 3
//  185   if ( bd_ptr != NULL )
        MOV     A,R0
        ORL     A,R1
        JZ      ??osal_bm_adjust_header_0
//  186   {
//  187     new_payload_ptr = (uint8 *)( (uint8 *)payload_ptr - size );
        CLR     C
        CLR     A
        SUBB    A,?V0 + 0
        MOV     R2,A
        CLR     A
        SUBB    A,?V0 + 1
        MOV     R3,A
        MOV     A,R6
        ADD     A,R2
        MOV     R2,A
        MOV     A,R7
        ADDC    A,R3
        MOV     R3,A
//  188 
//  189     // make sure the new payload is within valid range
//  190     if ( new_payload_ptr >= (uint8 *)START_PTR( bd_ptr ) &&
//  191          new_payload_ptr <= (uint8 *)END_PTR( bd_ptr ) )
        MOV     ?V0 + 0,R2
        MOV     ?V0 + 1,R3
        MOV     A,R0
        ADD     A,#0x4
        MOV     R4,A
        MOV     A,R1
        ADDC    A,#0x0
        MOV     R5,A
        CLR     C
        MOV     A,R2
        SUBB    A,R4
        MOV     A,R3
        SUBB    A,R5
        JC      ??osal_bm_adjust_header_0
        MOV     DPL,R0
        MOV     DPH,R1
        INC     DPTR
        INC     DPTR
        MOVX    A,@DPTR
        MOV     R4,A
        INC     DPTR
        MOVX    A,@DPTR
        MOV     R5,A
        MOV     A,R0
        ADD     A,R4
        MOV     DPL,A
        MOV     A,R1
        ADDC    A,R5
        MOV     DPH,A
        INC     DPTR
        INC     DPTR
        INC     DPTR
        INC     DPTR
        CLR     C
        MOV     A,DPL
        SUBB    A,?V0 + 0
        MOV     A,DPH
        SUBB    A,?V0 + 1
        JNC     ??osal_bm_adjust_header_1
//  192     {
//  193       // return new payload pointer
//  194       return ( (void *)new_payload_ptr );
//  195     }
//  196   }
//  197      
//  198   // return original value
//  199   return ( payload_ptr );
??osal_bm_adjust_header_0:
        MOV     A,R6
        MOV     R2,A
        MOV     A,R7
        MOV     R3,A
??osal_bm_adjust_header_1:
        REQUIRE ?Subroutine0
        ; // Fall through to label ?Subroutine0
//  200 }

        RSEG BANKED_CODE:CODE:NOROOT(0)
?Subroutine0:
        MOV     R7,#0x4
        LJMP    ?BANKED_LEAVE_XDATA
//  201 
//  202 /*********************************************************************
//  203  * @fn      osal_bm_adjust_tail
//  204  *
//  205  * @brief   Add or remove tail space for the payload pointer. A positive
//  206  *          adjustment adds tail space, and negative removes tail space.
//  207  *
//  208  * @param   payload_ptr - pointer to payload
//  209  * @param   size - +/- number of bytes to move (affecting header area)
//  210  *
//  211  * @return  pointer to payload at the new adjusted location
//  212  */

        RSEG BANKED_CODE:CODE:NOROOT(0)
//  213 void *osal_bm_adjust_tail( void *payload_ptr, int16 size )
osal_bm_adjust_tail:
        CODE
//  214 {
        MOV     A,#-0xc
        LCALL   ?BANKED_ENTER_XDATA
        ; Saved register size: 12
        ; Auto size: 0
        MOV     A,R2
        MOV     R6,A
        MOV     A,R3
        MOV     R7,A
        MOV     ?V0 + 0,R4
        MOV     ?V0 + 1,R5
//  215   bm_desc_t *bd_ptr;
//  216   uint8 *new_payload_ptr;
//  217   
//  218   bd_ptr = bm_desc_from_payload( (uint8 *)payload_ptr );
        ; Setup parameters for call to function bm_desc_from_payload
        LCALL   ??bm_desc_from_payload?relay
        MOV     ?V0 + 2,R2
        MOV     ?V0 + 3,R3
        MOV     R0,?V0 + 2
        MOV     R1,?V0 + 3
//  219   if ( bd_ptr != NULL )
        MOV     A,R0
        ORL     A,R1
        JZ      ??osal_bm_adjust_tail_0
        LCALL   ?Subroutine1 & 0xFFFF
??CrossCallReturnLabel_0:
        CLR     C
        CLR     A
        SUBB    A,?V0 + 0
        MOV     R2,A
        CLR     A
        SUBB    A,?V0 + 1
        MOV     R3,A
        MOV     A,DPL
        ADD     A,R2
        MOV     R2,A
        MOV     A,DPH
        ADDC    A,R3
        MOV     R3,A
        MOV     A,R2
        ADD     A,#0x4
        MOV     R2,A
        MOV     A,R3
        ADDC    A,#0x0
        MOV     R3,A
//  220   {
//  221     new_payload_ptr = (uint8 *)END_PTR( bd_ptr ) - size;
//  222     
//  223     // make sure the new payload is within valid range
//  224     if ( new_payload_ptr >= (uint8 *)START_PTR( bd_ptr ) &&
//  225          new_payload_ptr <= (uint8 *)END_PTR( bd_ptr ) )
        MOV     A,R2
        MOV     R4,A
        MOV     A,R3
        MOV     R5,A
        MOV     A,R0
        ADD     A,#0x4
        MOV     R0,A
        MOV     A,R1
        ADDC    A,#0x0
        MOV     R1,A
        CLR     C
        MOV     A,R4
        SUBB    A,R0
        MOV     A,R5
        SUBB    A,R1
        JC      ??osal_bm_adjust_tail_0
        INC     DPTR
        INC     DPTR
        INC     DPTR
        INC     DPTR
        CLR     C
        MOV     A,DPL
        SUBB    A,R4
        MOV     A,DPH
        SUBB    A,R5
        JNC     ??osal_bm_adjust_tail_1
//  226     {
//  227       // return new payload pointer
//  228       return ( (void *)new_payload_ptr );
//  229     }
//  230   }
//  231      
//  232   // return original value
//  233   return ( payload_ptr );
??osal_bm_adjust_tail_0:
        MOV     A,R6
        MOV     R2,A
        MOV     A,R7
        MOV     R3,A
??osal_bm_adjust_tail_1:
        SJMP    ?Subroutine0
//  234 }
//  235 
//  236 /*********************************************************************
//  237  * @fn      bm_desc_from_payload
//  238  *
//  239  * @brief   Find buffer descriptor from payload pointer
//  240  *
//  241  * @param   payload_ptr - pointer to payload
//  242  *
//  243  * @return  pointer to buffer descriptor
//  244  */

        RSEG BANKED_CODE:CODE:NOROOT(0)
//  245 static bm_desc_t *bm_desc_from_payload ( uint8 *payload_ptr )
bm_desc_from_payload:
        CODE
//  246 {
        PUSH    DPL
        PUSH    DPH
        ; Saved register size: 2
        ; Auto size: 0
//  247   bm_desc_t *loop_ptr;
//  248 
//  249   loop_ptr = bm_list_ptr;
        MOV     DPTR,#bm_list_ptr
        LCALL   ?Subroutine2 & 0xFFFF
??CrossCallReturnLabel_4:
        MOV     A,R2
        MOV     R4,A
        MOV     A,R3
        MOV     R5,A
        SJMP    ??CrossCallReturnLabel_5
//  250   while ( loop_ptr != NULL )
//  251   {
//  252     if ( payload_ptr >= (uint8 *)START_PTR( loop_ptr ) &&
//  253          payload_ptr <= (uint8 *)END_PTR( loop_ptr) )
//  254     {
//  255       // item found
//  256       break;
//  257     }
//  258     
//  259     // move on to next item
//  260     loop_ptr = loop_ptr->next_ptr;
??bm_desc_from_payload_0:
        MOV     DPL,R0
        MOV     DPH,R1
        LCALL   ?Subroutine2 & 0xFFFF
??CrossCallReturnLabel_5:
        MOV     A,R0
        ORL     A,R1
        JZ      ??bm_desc_from_payload_1
        MOV     A,R0
        ADD     A,#0x4
        MOV     R2,A
        MOV     A,R1
        ADDC    A,#0x0
        MOV     R3,A
        CLR     C
        MOV     A,R4
        SUBB    A,R2
        MOV     A,R5
        SUBB    A,R3
        JC      ??bm_desc_from_payload_0
        LCALL   ?Subroutine1 & 0xFFFF
//  261   }
??CrossCallReturnLabel_1:
        INC     DPTR
        INC     DPTR
        INC     DPTR
        INC     DPTR
        CLR     C
        MOV     A,DPL
        SUBB    A,R4
        MOV     A,DPH
        SUBB    A,R5
        JC      ??bm_desc_from_payload_0
//  262 
//  263   return ( loop_ptr );
??bm_desc_from_payload_1:
        MOV     A,R0
        MOV     R2,A
        MOV     A,R1
        MOV     R3,A
        POP     DPH
        POP     DPL
        LJMP    ?BRET
//  264 }

        RSEG BANKED_CODE:CODE:NOROOT(0)
?Subroutine2:
        MOVX    A,@DPTR
        MOV     R0,A
        INC     DPTR
        MOVX    A,@DPTR
        MOV     R1,A
        RET

        RSEG BANKED_CODE:CODE:NOROOT(0)
?Subroutine1:
        MOV     DPL,R0
        MOV     DPH,R1
        INC     DPTR
        INC     DPTR
        LCALL   ??Subroutine4_0 & 0xFFFF
??CrossCallReturnLabel_7:
        MOV     A,R0
        ADD     A,R2
        MOV     DPL,A
        MOV     A,R1
        ADDC    A,R3
        MOV     DPH,A
        RET

        RSEG BANKED_CODE:CODE:NOROOT(0)
?Subroutine3:
        MOV     DPTR,#bm_list_ptr
        REQUIRE ??Subroutine4_0
        ; // Fall through to label ??Subroutine4_0

        RSEG BANKED_CODE:CODE:NOROOT(0)
??Subroutine4_0:
        MOVX    A,@DPTR
        MOV     R2,A
        INC     DPTR
        MOVX    A,@DPTR
        MOV     R3,A
        RET

        RSEG BANK_RELAYS:CODE:REORDER:NOROOT(0)
??osal_bm_alloc?relay:
        CODE
        LCALL   ?BDISPATCH
        DATA24
        DC24    osal_bm_alloc

        RSEG BANK_RELAYS:CODE:REORDER:NOROOT(0)
??osal_bm_free?relay:
        CODE
        LCALL   ?BDISPATCH
        DATA24
        DC24    osal_bm_free

        RSEG BANK_RELAYS:CODE:REORDER:NOROOT(0)
??osal_bm_adjust_header?relay:
        CODE
        LCALL   ?BDISPATCH
        DATA24
        DC24    osal_bm_adjust_header

        RSEG BANK_RELAYS:CODE:REORDER:NOROOT(0)
??osal_bm_adjust_tail?relay:
        CODE
        LCALL   ?BDISPATCH
        DATA24
        DC24    osal_bm_adjust_tail

        RSEG BANK_RELAYS:CODE:REORDER:NOROOT(0)
??bm_desc_from_payload?relay:
        CODE
        LCALL   ?BDISPATCH
        DATA24
        DC24    bm_desc_from_payload

        END
//  265 
//  266 
//  267 /****************************************************************************
//  268 ****************************************************************************/
// 
// 498 bytes in segment BANKED_CODE
//  30 bytes in segment BANK_RELAYS
//   2 bytes in segment XDATA_Z
// 
// 528 bytes of CODE  memory
//   2 bytes of XDATA memory
//
//Errors: none
//Warnings: none
