///////////////////////////////////////////////////////////////////////////////
//                                                                            /
// IAR C/C++ Compiler V8.20.1.40829 for 8051            30/May/2014  17:59:38 /
// Copyright 2004-2012 IAR Systems AB.                                        /
//                                                                            /
//    Core               =  plain                                             /
//    Code model         =  banked                                            /
//    Data model         =  large                                             /
//    Calling convention =  xdata reentrant                                   /
//    Constant location  =  data_rom                                          /
//    Dptr setup         =  1,16                                              /
//                                                                            /
//    Source file        =  D:\NTHU\¬ã¨s\Important\ThesisCode\Code\GitLabClou /
//                          d\NewEcoExec\codegenerator\Device\EcoBT\Component /
//                          s\osal\common\OSAL_Timers.c                       /
//    Command line       =  -f D:\NTHU\¬ã¨s\Important\ThesisCode\Code\GitLabC /
//                          loud\NewEcoExec\codegenerator\Device\EcoBT\Projec /
//                          t\ble\CodeGenerator\CC2541DB\..\..\config\buildCo /
//                          mponents.cfg (-DBROADCASTER_CFG=0x01              /
//                          -DOBSERVER_CFG=0x02 -DPERIPHERAL_CFG=0x04         /
//                          -DCENTRAL_CFG=0x08 -DADV_NCONN_CFG=0x01           /
//                          -DADV_CONN_CFG=0x02 -DSCAN_CFG=0x04               /
//                          -DINIT_CFG=0x08 -DADV_CFG=ADV_NCONN_CFG+ADV_CONN_ /
//                          CFG -DLINK_CFG=ADV_CONN_CFG+INIT_CFG              /
//                          -DFULL_CFG=INIT_CFG+SCAN_CFG+ADV_NCONN_CFG+ADV_CO /
//                          NN_CFG) -f D:\NTHU\¬ã¨s\Important\ThesisCode\Code /
//                          \GitLabCloud\NewEcoExec\codegenerator\Device\EcoB /
//                          T\Project\ble\CodeGenerator\CC2541DB\buildConfig. /
//                          cfg (-DHOST_CONFIG=PERIPHERAL_CFG                 /
//                          -DGAP_PRIVACY_RECONNECT -DCC2541                  /
//                          -DOAD_IMAGE_VERSION=0x0000                        /
//                          "-DOAD_IMAGE_A_USER_ID='A', 'A', 'A', 'A'"        /
//                          "-DOAD_IMAGE_B_USER_ID='B', 'B', 'B', 'B'")       /
//                          D:\NTHU\¬ã¨s\Important\ThesisCode\Code\GitLabClou /
//                          d\NewEcoExec\codegenerator\Device\EcoBT\Component /
//                          s\osal\common\OSAL_Timers.c -D INT_HEAP_LEN=900   /
//                          -D HALNODEBUG -D OSAL_CBTIMER_NUM_TASKS=1 -D      /
//                          HAL_AES_DMA=TRUE -D HAL_DMA=TRUE -D               /
//                          xPOWER_SAVING -D xPLUS_BROADCASTER -D             /
//                          HAL_LCD=FALSE -D HAL_LED=TRUE -D HAL_ADC=TRUE     /
//                          -lB D:\NTHU\¬ã¨s\Important\ThesisCode\Code\GitLab /
//                          Cloud\NewEcoExec\codegenerator\Device\EcoBT\Proje /
//                          ct\ble\CodeGenerator\CC2541DB\CC2541\List\ -o     /
//                          D:\NTHU\¬ã¨s\Important\ThesisCode\Code\GitLabClou /
//                          d\NewEcoExec\codegenerator\Device\EcoBT\Project\b /
//                          le\CodeGenerator\CC2541DB\CC2541\Obj\ -e --debug  /
//                          --core=plain --dptr=16,1 --data_model=large       /
//                          --code_model=banked --calling_convention=xdata_re /
//                          entrant --place_constants=data_rom                /
//                          --nr_virtual_regs 16 -I                           /
//                          D:\NTHU\¬ã¨s\Important\ThesisCode\Code\GitLabClou /
//                          d\NewEcoExec\codegenerator\Device\EcoBT\Project\b /
//                          le\CodeGenerator\CC2541DB\..\..\common\ -I        /
//                          D:\NTHU\¬ã¨s\Important\ThesisCode\Code\GitLabClou /
//                          d\NewEcoExec\codegenerator\Device\EcoBT\Project\b /
//                          le\CodeGenerator\CC2541DB\..\..\include\ -I       /
//                          D:\NTHU\¬ã¨s\Important\ThesisCode\Code\GitLabClou /
//                          d\NewEcoExec\codegenerator\Device\EcoBT\Project\b /
//                          le\CodeGenerator\CC2541DB\..\..\..\..\Components\ /
//                          hal\include\ -I D:\NTHU\¬ã¨s\Important\ThesisCode /
//                          \Code\GitLabCloud\NewEcoExec\codegenerator\Device /
//                          \EcoBT\Project\ble\CodeGenerator\CC2541DB\..\..\. /
//                          .\..\Components\hal\target\CC2540EB\ -I           /
//                          D:\NTHU\¬ã¨s\Important\ThesisCode\Code\GitLabClou /
//                          d\NewEcoExec\codegenerator\Device\EcoBT\Project\b /
//                          le\CodeGenerator\CC2541DB\..\..\..\..\Components\ /
//                          osal\include\ -I D:\NTHU\¬ã¨s\Important\ThesisCod /
//                          e\Code\GitLabCloud\NewEcoExec\codegenerator\Devic /
//                          e\EcoBT\Project\ble\CodeGenerator\CC2541DB\..\..\ /
//                          ..\..\Components\services\saddr\ -I               /
//                          D:\NTHU\¬ã¨s\Important\ThesisCode\Code\GitLabClou /
//                          d\NewEcoExec\codegenerator\Device\EcoBT\Project\b /
//                          le\CodeGenerator\CC2541DB\..\..\..\..\Components\ /
//                          ble\include\ -I D:\NTHU\¬ã¨s\Important\ThesisCode /
//                          \Code\GitLabCloud\NewEcoExec\codegenerator\Device /
//                          \EcoBT\Project\ble\CodeGenerator\CC2541DB\..\..\. /
//                          .\..\Components\ble\controller\phy\ -I            /
//                          D:\NTHU\¬ã¨s\Important\ThesisCode\Code\GitLabClou /
//                          d\NewEcoExec\codegenerator\Device\EcoBT\Project\b /
//                          le\CodeGenerator\CC2541DB\..\..\..\..\Components\ /
//                          ble\controller\include\ -I                        /
//                          D:\NTHU\¬ã¨s\Important\ThesisCode\Code\GitLabClou /
//                          d\NewEcoExec\codegenerator\Device\EcoBT\Project\b /
//                          le\CodeGenerator\CC2541DB\..\..\..\..\Components\ /
//                          ble\hci\ -I D:\NTHU\¬ã¨s\Important\ThesisCode\Cod /
//                          e\GitLabCloud\NewEcoExec\codegenerator\Device\Eco /
//                          BT\Project\ble\CodeGenerator\CC2541DB\..\..\..\.. /
//                          \Components\ble\host\ -I                          /
//                          D:\NTHU\¬ã¨s\Important\ThesisCode\Code\GitLabClou /
//                          d\NewEcoExec\codegenerator\Device\EcoBT\Project\b /
//                          le\CodeGenerator\CC2541DB\..\..\common\cc2540\    /
//                          -I D:\NTHU\¬ã¨s\Important\ThesisCode\Code\GitLabC /
//                          loud\NewEcoExec\codegenerator\Device\EcoBT\Projec /
//                          t\ble\CodeGenerator\CC2541DB\..\..\common\npi\npi /
//                          _np\ -I D:\NTHU\¬ã¨s\Important\ThesisCode\Code\Gi /
//                          tLabCloud\NewEcoExec\codegenerator\Device\EcoBT\P /
//                          roject\ble\CodeGenerator\CC2541DB\..\..\Profiles\ /
//                          Roles\ -I D:\NTHU\¬ã¨s\Important\ThesisCode\Code\ /
//                          GitLabCloud\NewEcoExec\codegenerator\Device\EcoBT /
//                          \Project\ble\CodeGenerator\CC2541DB\..\..\Profile /
//                          s\SimpleProfile\ -I D:\NTHU\¬ã¨s\Important\Thesis /
//                          Code\Code\GitLabCloud\NewEcoExec\codegenerator\De /
//                          vice\EcoBT\Project\ble\CodeGenerator\CC2541DB\..\ /
//                          ..\Profiles\DevInfo\ -I                           /
//                          D:\NTHU\¬ã¨s\Important\ThesisCode\Code\GitLabClou /
//                          d\NewEcoExec\codegenerator\Device\EcoBT\Project\b /
//                          le\CodeGenerator\CC2541DB\..\..\Profiles\Accelero /
//                          meter\ -I D:\NTHU\¬ã¨s\Important\ThesisCode\Code\ /
//                          GitLabCloud\NewEcoExec\codegenerator\Device\EcoBT /
//                          \Project\ble\CodeGenerator\CC2541DB\..\..\Profile /
//                          s\EcoExecGATTProfile\ -I                          /
//                          D:\NTHU\¬ã¨s\Important\ThesisCode\Code\GitLabClou /
//                          d\NewEcoExec\codegenerator\Device\EcoBT\Project\b /
//                          le\CodeGenerator\CC2541DB\..\..\Profiles\timeserv /
//                          ice\ -I D:\NTHU\¬ã¨s\Important\ThesisCode\Code\Gi /
//                          tLabCloud\NewEcoExec\codegenerator\Device\EcoBT\P /
//                          roject\ble\CodeGenerator\CC2541DB\..\..\Profiles\ /
//                          Batt\ -I D:\NTHU\¬ã¨s\Important\ThesisCode\Code\G /
//                          itLabCloud\NewEcoExec\codegenerator\Device\EcoBT\ /
//                          Project\ble\CodeGenerator\CC2541DB\..\..\Profiles /
//                          \HIDDev\ -I D:\NTHU\¬ã¨s\Important\ThesisCode\Cod /
//                          e\GitLabCloud\NewEcoExec\codegenerator\Device\Eco /
//                          BT\Project\ble\CodeGenerator\CC2541DB\..\..\Profi /
//                          les\ScanParam\ -Ohz                               /
//    List file          =  D:\NTHU\¬ã¨s\Important\ThesisCode\Code\GitLabClou /
//                          d\NewEcoExec\codegenerator\Device\EcoBT\Project\b /
//                          le\CodeGenerator\CC2541DB\CC2541\List\OSAL_Timers /
//                          .s51                                              /
//                                                                            /
//                                                                            /
///////////////////////////////////////////////////////////////////////////////

        NAME OSAL_Timers

        RSEG DOVERLAY:DATA:NOROOT(0)
        RSEG IOVERLAY:IDATA:NOROOT(0)
        RSEG ISTACK:IDATA:NOROOT(0)
        RSEG PSTACK:XDATA:NOROOT(0)
        RSEG XSTACK:XDATA:NOROOT(0)

        EXTERN ?ALLOC_XSTACK8
        EXTERN ?BANKED_ENTER_XDATA
        EXTERN ?BANKED_LEAVE_XDATA
        EXTERN ?BDISPATCH
        EXTERN ?BRET
        EXTERN ?DEALLOC_XSTACK8
        EXTERN ?L_ADD_TO_X
        EXTERN ?L_MOV_TO_X
        EXTERN ?L_MOV_X
        EXTERN ?L_SUB_FROM_X
        EXTERN ?PUSH_XSTACK_I_FOUR
        EXTERN ?UL_GT_X
        EXTERN ?V0
        EXTERN ?XLOAD_R2345
        EXTERN ?XSP
        EXTERN ?XSTACK_DISP0_8
        EXTERN ?XSTORE_R2345
        EXTERN __INIT_XDATA_Z

        PUBLIC ??osalAddTimer?relay
        PUBLIC ??osalDeleteTimer?relay
        PUBLIC ??osalFindTimer?relay
        PUBLIC ??osalTimerInit?relay
        PUBLIC ??osalTimerUpdate?relay
        PUBLIC ??osal_GetSystemClock?relay
        PUBLIC ??osal_get_timeoutEx?relay
        PUBLIC ??osal_start_reload_timer?relay
        PUBLIC ??osal_start_timerEx?relay
        PUBLIC ??osal_stop_timerEx?relay
        PUBLIC ??osal_timer_num_active?relay
        PUBWEAK _A_IEN0
        PUBLIC osalAddTimer
        PUBLIC osalDeleteTimer
        PUBLIC osalFindTimer
        PUBLIC osalTimerInit
        PUBLIC osalTimerUpdate
        PUBLIC osal_GetSystemClock
        PUBLIC osal_get_timeoutEx
        PUBLIC osal_start_reload_timer
        PUBLIC osal_start_timerEx
        PUBLIC osal_stop_timerEx
        PUBLIC osal_timer_num_active
        PUBLIC timerHead

osal_mem_alloc      SYMBOL "osal_mem_alloc"
??osal_mem_alloc?relay SYMBOL "?relay", osal_mem_alloc
osal_mem_free       SYMBOL "osal_mem_free"
??osal_mem_free?relay SYMBOL "?relay", osal_mem_free
osal_set_event      SYMBOL "osal_set_event"
??osal_set_event?relay SYMBOL "?relay", osal_set_event
osalAddTimer        SYMBOL "osalAddTimer"
??osalAddTimer?relay SYMBOL "?relay", osalAddTimer
osalDeleteTimer     SYMBOL "osalDeleteTimer"
??osalDeleteTimer?relay SYMBOL "?relay", osalDeleteTimer
osalFindTimer       SYMBOL "osalFindTimer"
??osalFindTimer?relay SYMBOL "?relay", osalFindTimer
osalTimerInit       SYMBOL "osalTimerInit"
??osalTimerInit?relay SYMBOL "?relay", osalTimerInit
osalTimerUpdate     SYMBOL "osalTimerUpdate"
??osalTimerUpdate?relay SYMBOL "?relay", osalTimerUpdate
osal_GetSystemClock SYMBOL "osal_GetSystemClock"
??osal_GetSystemClock?relay SYMBOL "?relay", osal_GetSystemClock
osal_get_timeoutEx  SYMBOL "osal_get_timeoutEx"
??osal_get_timeoutEx?relay SYMBOL "?relay", osal_get_timeoutEx
osal_start_reload_timer SYMBOL "osal_start_reload_timer"
??osal_start_reload_timer?relay SYMBOL "?relay", osal_start_reload_timer
osal_start_timerEx  SYMBOL "osal_start_timerEx"
??osal_start_timerEx?relay SYMBOL "?relay", osal_start_timerEx
osal_stop_timerEx   SYMBOL "osal_stop_timerEx"
??osal_stop_timerEx?relay SYMBOL "?relay", osal_stop_timerEx
osal_timer_num_active SYMBOL "osal_timer_num_active"
??osal_timer_num_active?relay SYMBOL "?relay", osal_timer_num_active

        EXTERN ??osal_mem_alloc?relay
        EXTERN ??osal_mem_free?relay
        EXTERN ??osal_set_event?relay
        EXTERN osal_mem_alloc
        EXTERN osal_mem_free
        EXTERN osal_set_event

// D:\NTHU\¬ã¨s\Important\ThesisCode\Code\GitLabCloud\NewEcoExec\codegenerator\Device\EcoBT\Components\osal\common\OSAL_Timers.c
//    1 /**************************************************************************************************
//    2   Filename:       OSAL_Timers.c
//    3   Revised:        $Date: 2012-11-28 00:37:02 -0800 (Wed, 28 Nov 2012) $
//    4   Revision:       $Revision: 32329 $
//    5 
//    6   Description:    OSAL Timer definition and manipulation functions.
//    7 
//    8 
//    9   Copyright 2004-2012 Texas Instruments Incorporated. All rights reserved.
//   10 
//   11   IMPORTANT: Your use of this Software is limited to those specific rights
//   12   granted under the terms of a software license agreement between the user
//   13   who downloaded the software, his/her employer (which must be your employer)
//   14   and Texas Instruments Incorporated (the "License"). You may not use this
//   15   Software unless you agree to abide by the terms of the License. The License
//   16   limits your use, and you acknowledge, that the Software may not be modified,
//   17   copied or distributed unless embedded on a Texas Instruments microcontroller
//   18   or used solely and exclusively in conjunction with a Texas Instruments radio
//   19   frequency transceiver, which is integrated into your product. Other than for
//   20   the foregoing purpose, you may not use, reproduce, copy, prepare derivative
//   21   works of, modify, distribute, perform, display or sell this Software and/or
//   22   its documentation for any purpose.
//   23 
//   24   YOU FURTHER ACKNOWLEDGE AND AGREE THAT THE SOFTWARE AND DOCUMENTATION ARE
//   25   PROVIDED “AS IS” WITHOUT WARRANTY OF ANY KIND, EITHER EXPRESS OR IMPLIED,
//   26   INCLUDING WITHOUT LIMITATION, ANY WARRANTY OF MERCHANTABILITY, TITLE,
//   27   NON-INFRINGEMENT AND FITNESS FOR A PARTICULAR PURPOSE. IN NO EVENT SHALL
//   28   TEXAS INSTRUMENTS OR ITS LICENSORS BE LIABLE OR OBLIGATED UNDER CONTRACT,
//   29   NEGLIGENCE, STRICT LIABILITY, CONTRIBUTION, BREACH OF WARRANTY, OR OTHER
//   30   LEGAL EQUITABLE THEORY ANY DIRECT OR INDIRECT DAMAGES OR EXPENSES
//   31   INCLUDING BUT NOT LIMITED TO ANY INCIDENTAL, SPECIAL, INDIRECT, PUNITIVE
//   32   OR CONSEQUENTIAL DAMAGES, LOST PROFITS OR LOST DATA, COST OF PROCUREMENT
//   33   OF SUBSTITUTE GOODS, TECHNOLOGY, SERVICES, OR ANY CLAIMS BY THIRD PARTIES
//   34   (INCLUDING BUT NOT LIMITED TO ANY DEFENSE THEREOF), OR OTHER SIMILAR COSTS.
//   35 
//   36   Should you have any questions regarding your right to use this Software,
//   37   contact Texas Instruments Incorporated at www.TI.com.
//   38 **************************************************************************************************/
//   39 
//   40 /*********************************************************************
//   41  * INCLUDES
//   42  */
//   43 
//   44 #include "comdef.h"
//   45 #include "OnBoard.h"

        ASEGN SFR_AN:DATA:NOROOT,0a8H
// union <unnamed> volatile __sfr _A_IEN0
_A_IEN0:
        DATA8
        DS 1
//   46 #include "OSAL.h"
//   47 #include "OSAL_Timers.h"
//   48 #include "hal_timer.h"
//   49 
//   50 /*********************************************************************
//   51  * MACROS
//   52  */
//   53 
//   54 /*********************************************************************
//   55  * CONSTANTS
//   56  */
//   57 
//   58 /*********************************************************************
//   59  * TYPEDEFS
//   60  */
//   61 
//   62 typedef union {
//   63   uint32 time32;
//   64   uint16 time16[2];
//   65   uint8 time8[4];
//   66 } osalTime_t;
//   67 
//   68 typedef struct
//   69 {
//   70   void   *next;
//   71   osalTime_t timeout;
//   72   uint16 event_flag;
//   73   uint8  task_id;
//   74   uint32 reloadTimeout;
//   75 } osalTimerRec_t;
//   76 
//   77 /*********************************************************************
//   78  * GLOBAL VARIABLES
//   79  */
//   80 

        RSEG XDATA_Z:XDATA:NOROOT(0)
        DATA16
//   81 osalTimerRec_t *timerHead;
timerHead:
        DS 2
        REQUIRE __INIT_XDATA_Z
//   82 
//   83 /*********************************************************************
//   84  * EXTERNAL VARIABLES
//   85  */
//   86 
//   87 /*********************************************************************
//   88  * EXTERNAL FUNCTIONS
//   89  */
//   90 
//   91 /*********************************************************************
//   92  * LOCAL VARIABLES
//   93  */
//   94 // Milliseconds since last reboot

        RSEG XDATA_Z:XDATA:NOROOT(0)
        DATA32
//   95 static uint32 osal_systemClock;
osal_systemClock:
        DS 4
        REQUIRE __INIT_XDATA_Z
//   96 
//   97 /*********************************************************************
//   98  * LOCAL FUNCTION PROTOTYPES
//   99  */
//  100 osalTimerRec_t  *osalAddTimer( uint8 task_id, uint16 event_flag, uint32 timeout );
//  101 osalTimerRec_t *osalFindTimer( uint8 task_id, uint16 event_flag );
//  102 void osalDeleteTimer( osalTimerRec_t *rmTimer );
//  103 
//  104 /*********************************************************************
//  105  * FUNCTIONS
//  106  *********************************************************************/
//  107 
//  108 /*********************************************************************
//  109  * @fn      osalTimerInit
//  110  *
//  111  * @brief   Initialization for the OSAL Timer System.
//  112  *
//  113  * @param   none
//  114  *
//  115  * @return
//  116  */

        RSEG BANKED_CODE:CODE:NOROOT(0)
//  117 void osalTimerInit( void )
osalTimerInit:
        CODE
//  118 {
        MOV     A,#-0x9
        LCALL   ?BANKED_ENTER_XDATA
        ; Saved register size: 9
        ; Auto size: 0
//  119   osal_systemClock = 0;
        MOV     DPTR,#osal_systemClock
        CLR     A
        MOVX    @DPTR,A
        INC     DPTR
        MOVX    @DPTR,A
        INC     DPTR
        MOVX    @DPTR,A
        INC     DPTR
        MOVX    @DPTR,A
//  120 }
        MOV     R7,#0x1
        LJMP    ?BANKED_LEAVE_XDATA
//  121 
//  122 /*********************************************************************
//  123  * @fn      osalAddTimer
//  124  *
//  125  * @brief   Add a timer to the timer list.
//  126  *          Ints must be disabled.
//  127  *
//  128  * @param   task_id
//  129  * @param   event_flag
//  130  * @param   timeout
//  131  *
//  132  * @return  osalTimerRec_t * - pointer to newly created timer
//  133  */

        RSEG BANKED_CODE:CODE:NOROOT(0)
//  134 osalTimerRec_t * osalAddTimer( uint8 task_id, uint16 event_flag, uint32 timeout )
osalAddTimer:
        CODE
//  135 {
        MOV     A,#-0x10
        LCALL   ?BANKED_ENTER_XDATA
        ; Saved register size: 16
        ; Auto size: 0
        MOV     A,R1
        MOV     R6,A
        MOV     ?V0 + 0,R2
        MOV     ?V0 + 1,R3
//  136   osalTimerRec_t *newTimer;
//  137   osalTimerRec_t *srchTimer;
//  138 
//  139   // Look for an existing timer first
//  140   newTimer = osalFindTimer( task_id, event_flag );
        ; Setup parameters for call to function osalFindTimer
        LCALL   ??osalFindTimer?relay
        MOV     A,#0x10
        LCALL   ?XSTACK_DISP0_8
        MOV     R0,#?V0 + 4
        LCALL   ?L_MOV_X
//  141   if ( newTimer )
        MOV     A,R2
        ORL     A,R3
        JZ      ??osalAddTimer_0
//  142   {
//  143     // Timer is found - update it.
//  144     newTimer->timeout.time32 = timeout;
        MOV     DPL,R2
        MOV     DPH,R3
        INC     DPTR
        INC     DPTR
        MOV     R0,#?V0 + 4
        LCALL   ?L_MOV_TO_X
//  145 
//  146     return ( newTimer );
        LJMP    ??osalAddTimer_1 & 0xFFFF
//  147   }
//  148   else
//  149   {
//  150     // New Timer
//  151     newTimer = osal_mem_alloc( sizeof( osalTimerRec_t ) );
??osalAddTimer_0:
        ; Setup parameters for call to function osal_mem_alloc
        MOV     R2,#0xd
        MOV     R3,#0x0
        LCALL   ??osal_mem_alloc?relay
//  152 
//  153     if ( newTimer )
        MOV     A,R2
        ORL     A,R3
        JZ      ??osalAddTimer_2
//  154     {
//  155       // Fill in new timer
//  156       newTimer->task_id = task_id;
        MOV     A,R6
        MOV     DPL,R2
        MOV     DPH,R3
        INC     DPTR
        INC     DPTR
        INC     DPTR
        INC     DPTR
        INC     DPTR
        INC     DPTR
        INC     DPTR
        INC     DPTR
        MOVX    @DPTR,A
//  157       newTimer->event_flag = event_flag;
        MOV     DPL,R2
        MOV     DPH,R3
        INC     DPTR
        INC     DPTR
        INC     DPTR
        INC     DPTR
        INC     DPTR
        INC     DPTR
        MOV     A,?V0 + 0
        MOVX    @DPTR,A
        INC     DPTR
        MOV     A,?V0 + 1
        MOVX    @DPTR,A
//  158       newTimer->timeout.time32 = timeout;
        MOV     DPL,R2
        MOV     DPH,R3
        INC     DPTR
        INC     DPTR
        MOV     R0,#?V0 + 4
        LCALL   ?L_MOV_TO_X
//  159       newTimer->next = (void *)NULL;
        MOV     DPL,R2
        MOV     DPH,R3
        CLR     A
        MOVX    @DPTR,A
        INC     DPTR
        MOVX    @DPTR,A
//  160       newTimer->reloadTimeout = 0;
        MOV     ?V0 + 0,A
        MOV     ?V0 + 1,A
        MOV     ?V0 + 2,A
        MOV     ?V0 + 3,A
        MOV     DPL,R2
        MOV     DPH,R3
        INC     DPTR
        INC     DPTR
        INC     DPTR
        INC     DPTR
        INC     DPTR
        INC     DPTR
        INC     DPTR
        INC     DPTR
        INC     DPTR
        MOV     R0,#?V0 + 0
        LCALL   ?L_MOV_TO_X
//  161 
//  162       // Does the timer list already exist
//  163       if ( timerHead == NULL )
        MOV     DPTR,#timerHead
        LCALL   ??Subroutine4_0 & 0xFFFF
??CrossCallReturnLabel_0:
        MOV     DPTR,#timerHead
        JZ      ??osalAddTimer_3
//  164       {
//  165         // Start task list
//  166         timerHead = newTimer;
//  167       }
//  168       else
//  169       {
//  170         // Add it to the end of the timer list
//  171         srchTimer = timerHead;
        MOVX    A,@DPTR
        MOV     R4,A
        INC     DPTR
        MOVX    A,@DPTR
        SJMP    ??osalAddTimer_4
//  172 
//  173         // Stop at the last record
//  174         while ( srchTimer->next )
//  175           srchTimer = srchTimer->next;
??osalAddTimer_5:
        MOV     A,R0
        MOV     R4,A
        MOV     A,R1
??osalAddTimer_4:
        MOV     R5,A
        MOV     DPL,R4
        MOV     DPH,R5
        LCALL   ??Subroutine4_0 & 0xFFFF
??CrossCallReturnLabel_1:
        JNZ     ??osalAddTimer_5
//  176 
//  177         // Add to the list
//  178         srchTimer->next = newTimer;
        MOV     DPL,R4
        MOV     DPH,R5
??osalAddTimer_3:
        MOV     A,R2
        MOVX    @DPTR,A
        INC     DPTR
        MOV     A,R3
        MOVX    @DPTR,A
//  179       }
//  180 
//  181       return ( newTimer );
        SJMP    ??osalAddTimer_1
//  182     }
//  183     else
//  184     {
//  185       return ( (osalTimerRec_t *)NULL );
??osalAddTimer_2:
        MOV     R2,#0x0
        MOV     R3,#0x0
??osalAddTimer_1:
        MOV     R7,#0x8
        LJMP    ?BANKED_LEAVE_XDATA
//  186     }
//  187   }
//  188 }
//  189 
//  190 /*********************************************************************
//  191  * @fn      osalFindTimer
//  192  *
//  193  * @brief   Find a timer in a timer list.
//  194  *          Ints must be disabled.
//  195  *
//  196  * @param   task_id
//  197  * @param   event_flag
//  198  *
//  199  * @return  osalTimerRec_t *
//  200  */

        RSEG BANKED_CODE:CODE:NOROOT(0)
//  201 osalTimerRec_t *osalFindTimer( uint8 task_id, uint16 event_flag )
osalFindTimer:
        CODE
//  202 {
        PUSH    DPL
        PUSH    DPH
        ; Saved register size: 2
        ; Auto size: 0
//  203   osalTimerRec_t *srchTimer;
//  204 
//  205   // Head of the timer list
//  206   srchTimer = timerHead;
        MOV     DPTR,#timerHead
        SJMP    ??osalFindTimer_0
//  207 
//  208   // Stop when found or at the end
//  209   while ( srchTimer )
//  210   {
//  211     if ( srchTimer->event_flag == event_flag &&
//  212          srchTimer->task_id == task_id )
//  213     {
//  214       break;
//  215     }
//  216 
//  217     // Not this one, check another
//  218     srchTimer = srchTimer->next;
??osalFindTimer_1:
        MOV     DPL,R4
        MOV     DPH,R5
??osalFindTimer_0:
        MOVX    A,@DPTR
        MOV     R4,A
        INC     DPTR
        MOVX    A,@DPTR
        MOV     R5,A
        MOV     A,R4
        ORL     A,R5
        JZ      ??osalFindTimer_2
        MOV     DPL,R4
        MOV     DPH,R5
        INC     DPTR
        INC     DPTR
        INC     DPTR
        INC     DPTR
        INC     DPTR
        INC     DPTR
        MOVX    A,@DPTR
        XRL     A,R2
        JNZ     ??osalFindTimer_3
        INC     DPTR
        MOVX    A,@DPTR
        XRL     A,R3
??osalFindTimer_3:
        JNZ     ??osalFindTimer_1
        MOV     DPL,R4
        MOV     DPH,R5
        INC     DPTR
        INC     DPTR
        INC     DPTR
        INC     DPTR
        INC     DPTR
        INC     DPTR
        INC     DPTR
        INC     DPTR
        MOVX    A,@DPTR
        XRL     A,R1
        JNZ     ??osalFindTimer_1
//  219   }
//  220 
//  221   return ( srchTimer );
??osalFindTimer_2:
        MOV     A,R4
        MOV     R2,A
        MOV     A,R5
        MOV     R3,A
        LJMP    ?Subroutine0 & 0xFFFF
//  222 }
//  223 
//  224 /*********************************************************************
//  225  * @fn      osalDeleteTimer
//  226  *
//  227  * @brief   Delete a timer from a timer list.
//  228  *
//  229  * @param   table
//  230  * @param   rmTimer
//  231  *
//  232  * @return  none
//  233  */

        RSEG BANKED_CODE:CODE:NOROOT(0)
//  234 void osalDeleteTimer( osalTimerRec_t *rmTimer )
osalDeleteTimer:
        CODE
//  235 {
        PUSH    DPL
        PUSH    DPH
        ; Saved register size: 2
        ; Auto size: 0
//  236   // Does the timer list really exist
//  237   if ( rmTimer )
        MOV     A,R2
        ORL     A,R3
        JZ      ??osalDeleteTimer_0
//  238   {
//  239     // Clear the event flag and osalTimerUpdate() will delete
//  240     // the timer from the list.
//  241     rmTimer->event_flag = 0;
        MOV     DPL,R2
        MOV     DPH,R3
        INC     DPTR
        INC     DPTR
        INC     DPTR
        INC     DPTR
        INC     DPTR
        INC     DPTR
        CLR     A
        MOVX    @DPTR,A
        INC     DPTR
        MOVX    @DPTR,A
//  242   }
//  243 }
??osalDeleteTimer_0:
        LJMP    ?Subroutine0 & 0xFFFF
//  244 
//  245 /*********************************************************************
//  246  * @fn      osal_start_timerEx
//  247  *
//  248  * @brief
//  249  *
//  250  *   This function is called to start a timer to expire in n mSecs.
//  251  *   When the timer expires, the calling task will get the specified event.
//  252  *
//  253  * @param   uint8 taskID - task id to set timer for
//  254  * @param   uint16 event_id - event to be notified with
//  255  * @param   uint32 timeout_value - in milliseconds.
//  256  *
//  257  * @return  SUCCESS, or NO_TIMER_AVAIL.
//  258  */

        RSEG BANKED_CODE:CODE:NOROOT(0)
//  259 uint8 osal_start_timerEx( uint8 taskID, uint16 event_id, uint32 timeout_value )
osal_start_timerEx:
        CODE
//  260 {
        MOV     A,#-0xc
        LCALL   ?BANKED_ENTER_XDATA
        ; Saved register size: 12
        ; Auto size: 0
        MOV     A,#0xc
        LCALL   ?XSTACK_DISP0_8
        MOV     R0,#?V0 + 0
        LCALL   ?L_MOV_X
//  261   halIntState_t intState;
//  262   osalTimerRec_t *newTimer;
//  263 
//  264   HAL_ENTER_CRITICAL_SECTION( intState );  // Hold off interrupts.
        MOV     A,0xa8
        MOV     R7,A
        CLR     0xa8.7
//  265 
//  266   // Add timer
//  267   newTimer = osalAddTimer( taskID, event_id, timeout_value );
        ; Setup parameters for call to function osalAddTimer
        MOV     R0,#?V0 + 0
        LCALL   ?PUSH_XSTACK_I_FOUR
        LCALL   ??osalAddTimer?relay
        MOV     A,#0x4
        LCALL   ?DEALLOC_XSTACK8
        MOV     ?V0 + 1,R3
        MOV     R1,?V0 + 1
//  268 
//  269   HAL_EXIT_CRITICAL_SECTION( intState );   // Re-enable interrupts.
        MOV     A,R7
        MOV     C,0xE0 /* A   */.7
        MOV     C,0xE0 /* A   */.7
        MOV     0xa8.7,C
//  270 
//  271   return ( (newTimer != NULL) ? SUCCESS : NO_TIMER_AVAIL );
        MOV     A,R2
        ORL     A,R1
        JZ      ??osal_start_timerEx_0
        MOV     R1,#0x0
        SJMP    ??osal_start_timerEx_1
??osal_start_timerEx_0:
        MOV     R1,#0x8
??osal_start_timerEx_1:
        REQUIRE ?Subroutine1
        REQUIRE _A_IEN0
        ; // Fall through to label ?Subroutine1
//  272 }

        RSEG BANKED_CODE:CODE:NOROOT(0)
?Subroutine1:
        MOV     R7,#0x4
        LJMP    ?BANKED_LEAVE_XDATA
//  273 
//  274 /*********************************************************************
//  275  * @fn      osal_start_reload_timer
//  276  *
//  277  * @brief
//  278  *
//  279  *   This function is called to start a timer to expire in n mSecs.
//  280  *   When the timer expires, the calling task will get the specified event
//  281  *   and the timer will be reloaded with the timeout value.
//  282  *
//  283  * @param   uint8 taskID - task id to set timer for
//  284  * @param   uint16 event_id - event to be notified with
//  285  * @param   UNINT16 timeout_value - in milliseconds.
//  286  *
//  287  * @return  SUCCESS, or NO_TIMER_AVAIL.
//  288  */

        RSEG BANKED_CODE:CODE:NOROOT(0)
//  289 uint8 osal_start_reload_timer( uint8 taskID, uint16 event_id, uint32 timeout_value )
osal_start_reload_timer:
        CODE
//  290 {
        MOV     A,#-0xe
        LCALL   ?BANKED_ENTER_XDATA
        ; Saved register size: 14
        ; Auto size: 0
//  291   halIntState_t intState;
//  292   osalTimerRec_t *newTimer;
//  293 
//  294   HAL_ENTER_CRITICAL_SECTION( intState );  // Hold off interrupts.
        MOV     C,0xa8.7
        CLR     A
        RLC     A
        MOV     R7,A
        CLR     0xa8.7
        MOV     A,#0xe
        LCALL   ?XSTACK_DISP0_8
        MOV     R0,#?V0 + 0
        LCALL   ?L_MOV_X
//  295 
//  296   // Add timer
//  297   newTimer = osalAddTimer( taskID, event_id, timeout_value );
        ; Setup parameters for call to function osalAddTimer
        MOV     R0,#?V0 + 0
        LCALL   ?PUSH_XSTACK_I_FOUR
        LCALL   ??osalAddTimer?relay
        MOV     A,#0x4
        LCALL   ?DEALLOC_XSTACK8
//  298   if ( newTimer )
        MOV     A,R2
        ORL     A,R3
        JZ      ??osal_start_reload_timer_0
//  299   {
//  300     // Load the reload timeout value
//  301     newTimer->reloadTimeout = timeout_value;
        MOV     DPL,R2
        MOV     DPH,R3
        INC     DPTR
        INC     DPTR
        INC     DPTR
        INC     DPTR
        INC     DPTR
        INC     DPTR
        INC     DPTR
        INC     DPTR
        INC     DPTR
        MOV     R0,#?V0 + 0
        LCALL   ?L_MOV_TO_X
//  302   }
//  303 
//  304   HAL_EXIT_CRITICAL_SECTION( intState );   // Re-enable interrupts.
??osal_start_reload_timer_0:
        MOV     A,R7
        MOV     C,0xE0 /* A   */.0
        MOV     0xa8.7,C
//  305 
//  306   return ( (newTimer != NULL) ? SUCCESS : NO_TIMER_AVAIL );
        MOV     A,R2
        ORL     A,R3
        JZ      ??osal_start_reload_timer_1
        MOV     R1,#0x0
        SJMP    ??osal_start_reload_timer_2
??osal_start_reload_timer_1:
        MOV     R1,#0x8
??osal_start_reload_timer_2:
        REQUIRE ?Subroutine2
        REQUIRE _A_IEN0
        ; // Fall through to label ?Subroutine2
//  307 }

        RSEG BANKED_CODE:CODE:NOROOT(0)
?Subroutine2:
        MOV     R7,#0x6
        LJMP    ?BANKED_LEAVE_XDATA
//  308 
//  309 /*********************************************************************
//  310  * @fn      osal_stop_timerEx
//  311  *
//  312  * @brief
//  313  *
//  314  *   This function is called to stop a timer that has already been started.
//  315  *   If ZSUCCESS, the function will cancel the timer and prevent the event
//  316  *   associated with the timer from being set for the calling task.
//  317  *
//  318  * @param   uint8 task_id - task id of timer to stop
//  319  * @param   uint16 event_id - identifier of the timer that is to be stopped
//  320  *
//  321  * @return  SUCCESS or INVALID_EVENT_ID
//  322  */

        RSEG BANKED_CODE:CODE:NOROOT(0)
//  323 uint8 osal_stop_timerEx( uint8 task_id, uint16 event_id )
osal_stop_timerEx:
        CODE
//  324 {
        MOV     A,#-0xc
        LCALL   ?BANKED_ENTER_XDATA
        ; Saved register size: 12
        ; Auto size: 0
//  325   halIntState_t intState;
//  326   osalTimerRec_t *foundTimer;
//  327 
//  328   HAL_ENTER_CRITICAL_SECTION( intState );  // Hold off interrupts.
        MOV     C,0xa8.7
        CLR     A
        RLC     A
        MOV     ?V0 + 1,A
        CLR     0xa8.7
//  329 
//  330   // Find the timer to stop
//  331   foundTimer = osalFindTimer( task_id, event_id );
        ; Setup parameters for call to function osalFindTimer
        LCALL   ??osalFindTimer?relay
        MOV     ?V0 + 2,R2
        MOV     ?V0 + 3,R3
        MOV     R6,?V0 + 2
        MOV     R7,?V0 + 3
//  332   if ( foundTimer )
        MOV     A,R6
        ORL     A,R7
        JZ      ??osal_stop_timerEx_0
//  333   {
//  334     osalDeleteTimer( foundTimer );
        ; Setup parameters for call to function osalDeleteTimer
        LCALL   ??osalDeleteTimer?relay
//  335   }
//  336 
//  337   HAL_EXIT_CRITICAL_SECTION( intState );   // Re-enable interrupts.
??osal_stop_timerEx_0:
        MOV     A,?V0 + 1
        MOV     C,0xE0 /* A   */.0
        MOV     0xa8.7,C
//  338 
//  339   return ( (foundTimer != NULL) ? SUCCESS : INVALID_EVENT_ID );
        MOV     A,R6
        ORL     A,R7
        JZ      ??osal_stop_timerEx_1
        MOV     R1,#0x0
        SJMP    ??osal_stop_timerEx_2
??osal_stop_timerEx_1:
        MOV     R1,#0x6
??osal_stop_timerEx_2:
        LJMP    ?Subroutine1 & 0xFFFF
        REQUIRE _A_IEN0
//  340 }
//  341 
//  342 /*********************************************************************
//  343  * @fn      osal_get_timeoutEx
//  344  *
//  345  * @brief
//  346  *
//  347  * @param   uint8 task_id - task id of timer to check
//  348  * @param   uint16 event_id - identifier of timer to be checked
//  349  *
//  350  * @return  Return the timer's tick count if found, zero otherwise.
//  351  */

        RSEG BANKED_CODE:CODE:NOROOT(0)
//  352 uint32 osal_get_timeoutEx( uint8 task_id, uint16 event_id )
osal_get_timeoutEx:
        CODE
//  353 {
        MOV     A,#-0xe
        LCALL   ?BANKED_ENTER_XDATA
        ; Saved register size: 14
        ; Auto size: 0
//  354   halIntState_t intState;
//  355   uint32 rtrn = 0;
        MOV     ?V0 + 0,#0x0
        MOV     ?V0 + 1,#0x0
        MOV     ?V0 + 2,#0x0
        MOV     ?V0 + 3,#0x0
//  356   osalTimerRec_t *tmr;
//  357 
//  358   HAL_ENTER_CRITICAL_SECTION( intState );  // Hold off interrupts.
        MOV     C,0xa8.7
        CLR     A
        RLC     A
        MOV     R7,A
        CLR     0xa8.7
//  359 
//  360   tmr = osalFindTimer( task_id, event_id );
        ; Setup parameters for call to function osalFindTimer
        LCALL   ??osalFindTimer?relay
        MOV     DPL,R2
        MOV     DPH,R3
//  361 
//  362   if ( tmr )
        MOV     A,DPL
        ORL     A,DPH
        JZ      ??osal_get_timeoutEx_0
//  363   {
//  364     rtrn = tmr->timeout.time32;
        INC     DPTR
        INC     DPTR
        MOV     R0,#?V0 + 0
        LCALL   ?L_MOV_X
//  365   }
//  366 
//  367   HAL_EXIT_CRITICAL_SECTION( intState );   // Re-enable interrupts.
??osal_get_timeoutEx_0:
        MOV     A,R7
        MOV     C,0xE0 /* A   */.0
        MOV     0xa8.7,C
//  368 
//  369   return rtrn;
        MOV     R2,?V0 + 0
        MOV     R3,?V0 + 1
        MOV     R4,?V0 + 2
        MOV     R5,?V0 + 3
        SJMP    ?Subroutine2
        REQUIRE _A_IEN0
//  370 }
//  371 
//  372 /*********************************************************************
//  373  * @fn      osal_timer_num_active
//  374  *
//  375  * @brief
//  376  *
//  377  *   This function counts the number of active timers.
//  378  *
//  379  * @return  uint8 - number of timers
//  380  */

        RSEG BANKED_CODE:CODE:NOROOT(0)
//  381 uint8 osal_timer_num_active( void )
osal_timer_num_active:
        CODE
//  382 {
        PUSH    DPL
        PUSH    DPH
        ; Saved register size: 2
        ; Auto size: 0
//  383   halIntState_t intState;
//  384   uint8 num_timers = 0;
        MOV     R1,#0x0
//  385   osalTimerRec_t *srchTimer;
//  386 
//  387   HAL_ENTER_CRITICAL_SECTION( intState );  // Hold off interrupts.
        MOV     C,0xa8.7
        CLR     A
        RLC     A
        MOV     R0,A
        CLR     0xa8.7
//  388 
//  389   // Head of the timer list
//  390   srchTimer = timerHead;
        MOV     DPTR,#timerHead
        SJMP    ??osal_timer_num_active_0
//  391 
//  392   // Count timers in the list
//  393   while ( srchTimer != NULL )
//  394   {
//  395     num_timers++;
??osal_timer_num_active_1:
        INC     R1
//  396     srchTimer = srchTimer->next;
??osal_timer_num_active_0:
        MOVX    A,@DPTR
        MOV     R2,A
        INC     DPTR
        MOVX    A,@DPTR
        MOV     R3,A
        MOV     DPL,R2
        MOV     DPH,R3
//  397   }
        MOV     A,DPL
        ORL     A,DPH
        JNZ     ??osal_timer_num_active_1
//  398 
//  399   HAL_EXIT_CRITICAL_SECTION( intState );   // Re-enable interrupts.
        MOV     A,R0
        MOV     C,0xE0 /* A   */.0
        MOV     0xa8.7,C
//  400 
//  401   return num_timers;
        REQUIRE ?Subroutine0
        REQUIRE _A_IEN0
        ; // Fall through to label ?Subroutine0
//  402 }

        RSEG BANKED_CODE:CODE:NOROOT(0)
?Subroutine0:
        POP     DPH
        POP     DPL
        LJMP    ?BRET
//  403 
//  404 /*********************************************************************
//  405  * @fn      osalTimerUpdate
//  406  *
//  407  * @brief   Update the timer structures for a timer tick.
//  408  *
//  409  * @param   none
//  410  *
//  411  * @return  none
//  412  *********************************************************************/

        RSEG BANKED_CODE:CODE:NOROOT(0)
//  413 void osalTimerUpdate( uint32 updateTime )
osalTimerUpdate:
        CODE
//  414 {
        MOV     A,#-0x18
        LCALL   ?BANKED_ENTER_XDATA
        ; Saved register size: 24
        ; Auto size: 5
        MOV     A,#-0x5
        LCALL   ?ALLOC_XSTACK8
        MOV     ?V0 + 0,R2
        MOV     ?V0 + 1,R3
        MOV     ?V0 + 2,R4
        MOV     ?V0 + 3,R5
//  415   halIntState_t intState;
//  416   osalTimerRec_t *srchTimer;
//  417   osalTimerRec_t *prevTimer;
//  418 
//  419   osalTime_t timeUnion;
//  420   timeUnion.time32 = updateTime;
        MOV     A,#0x1
        LCALL   ?XSTACK_DISP0_8
        MOV     R0,#?V0 + 0
        LCALL   ?L_MOV_TO_X
//  421 
//  422   HAL_ENTER_CRITICAL_SECTION( intState );  // Hold off interrupts.
        MOV     A,0xa8
        MOV     R1,A
        CLR     0xa8.7
//  423   // Update the system time
//  424   osal_systemClock += updateTime;
        MOV     DPTR,#osal_systemClock
        MOV     R0,#?V0 + 0
        LCALL   ?L_ADD_TO_X
//  425   HAL_EXIT_CRITICAL_SECTION( intState );   // Re-enable interrupts.
        MOV     A,R1
        MOV     C,0xE0 /* A   */.7
        MOV     C,0xE0 /* A   */.7
        MOV     0xa8.7,C
//  426 
//  427   // Look for open timer slot
//  428   if ( timerHead != NULL )
        MOV     DPTR,#timerHead
        LCALL   ??Subroutine4_0 & 0xFFFF
??CrossCallReturnLabel_2:
        JNZ     $+5
        LJMP    ??osalTimerUpdate_0 & 0xFFFF
//  429   {
//  430     // Add it to the end of the timer list
//  431     srchTimer = timerHead;
        MOV     DPTR,#timerHead
        MOVX    A,@DPTR
        MOV     R6,A
        INC     DPTR
        MOVX    A,@DPTR
        MOV     R7,A
//  432     prevTimer = (void *)NULL;
        MOV     ?V0 + 14,#0x0
        MOV     ?V0 + 15,#0x0
//  433 
//  434     // Look for open timer slot
//  435     while ( srchTimer )
//  436     {
//  437       osalTimerRec_t *freeTimer = NULL;
??osalTimerUpdate_1:
        MOV     ?V0 + 0,#0x0
        MOV     ?V0 + 1,#0x0
//  438 
//  439       HAL_ENTER_CRITICAL_SECTION( intState );  // Hold off interrupts.
        MOV     C,0xa8.7
        CLR     A
        RLC     A
        MOV     DPL,?XSP + 0
        MOV     DPH,?XSP + 1
        MOVX    @DPTR,A
        CLR     0xa8.7
//  440 
//  441       // To minimize time in this critical section, avoid 32-bit math
//  442       if ((timeUnion.time16[1] == 0) && (timeUnion.time8[1] == 0))
        MOV     A,R6
        ADD     A,#0x2
        MOV     ?V0 + 12,A
        MOV     A,R7
        ADDC    A,#0x0
        MOV     ?V0 + 13,A
        MOV     A,R6
        ADD     A,#0x2
        MOV     ?V0 + 8,A
        MOV     A,R7
        ADDC    A,#0x0
        MOV     ?V0 + 9,A
        MOV     A,#0x3
        LCALL   ?XSTACK_DISP0_8
        LCALL   ??Subroutine4_0 & 0xFFFF
??CrossCallReturnLabel_3:
        JNZ     ??osalTimerUpdate_2
        MOV     A,#0x2
        LCALL   ?XSTACK_DISP0_8
        MOVX    A,@DPTR
        JNZ     ??osalTimerUpdate_2
//  443       {
//  444         // If upper 24 bits are zero, check lower 8 bits for roll over
//  445         if (srchTimer->timeout.time8[0] >= timeUnion.time8[0])
        MOV     A,#0x1
        LCALL   ?XSTACK_DISP0_8
        MOVX    A,@DPTR
        MOV     R0,A
        MOV     DPL,?V0 + 8
        MOV     DPH,?V0 + 9
        MOVX    A,@DPTR
        CLR     C
        SUBB    A,R0
        JC      ??osalTimerUpdate_2
//  446         {
//  447           // 8-bit math
//  448           srchTimer->timeout.time8[0] -= timeUnion.time8[0];
        MOVX    A,@DPTR
        CLR     C
        SUBB    A,R0
        SJMP    ??osalTimerUpdate_3
//  449         }
//  450         else
//  451         {
//  452           // 32-bit math
//  453           if (srchTimer->timeout.time32 > timeUnion.time32)
//  454           {
//  455             srchTimer->timeout.time32 -= timeUnion.time32;
//  456           }
//  457           else
//  458           {
//  459             srchTimer->timeout.time32 = 0;
//  460           }
//  461         }
//  462       }
//  463       else
//  464       {
//  465           // 32-bit math
//  466         if (srchTimer->timeout.time32 > timeUnion.time32)
??osalTimerUpdate_2:
        MOV     DPL,?V0 + 12
        MOV     DPH,?V0 + 13
        MOV     R0,#?V0 + 4
        LCALL   ?L_MOV_X
        MOV     A,#0x1
        LCALL   ?XSTACK_DISP0_8
        MOV     R0,#?V0 + 4
        LCALL   ?UL_GT_X
        JNC     ??osalTimerUpdate_4
//  467         {
//  468           srchTimer->timeout.time32 -= timeUnion.time32;
        MOV     A,#0x1
        LCALL   ?XSTACK_DISP0_8
        MOV     R0,#?V0 + 4
        LCALL   ?L_MOV_X
        MOV     DPL,?V0 + 12
        MOV     DPH,?V0 + 13
        MOV     R0,#?V0 + 4
        LCALL   ?L_SUB_FROM_X
        SJMP    ??osalTimerUpdate_5
//  469         }
//  470         else
//  471         {
//  472           srchTimer->timeout.time32 = 0;
??osalTimerUpdate_4:
        MOV     DPL,?V0 + 12
        MOV     DPH,?V0 + 13
        CLR     A
        MOVX    @DPTR,A
        INC     DPTR
        MOVX    @DPTR,A
        INC     DPTR
        MOVX    @DPTR,A
        INC     DPTR
??osalTimerUpdate_3:
        MOVX    @DPTR,A
??osalTimerUpdate_5:
        MOV     A,R6
        ADD     A,#0x4
        MOV     ?V0 + 10,A
        MOV     A,R7
        ADDC    A,#0x0
        MOV     ?V0 + 11,A
//  473         }
//  474       }
        LCALL   ?Subroutine3 & 0xFFFF
??CrossCallReturnLabel_9:
        JNZ     ??osalTimerUpdate_6
        MOV     DPL,?V0 + 10
        MOV     DPH,?V0 + 11
        LCALL   ??Subroutine4_0 & 0xFFFF
??CrossCallReturnLabel_4:
        JNZ     ??osalTimerUpdate_7
        MOV     A,R6
        ADD     A,#0x9
        MOV     ?V0 + 2,A
        MOV     A,R7
        ADDC    A,#0x0
        MOV     ?V0 + 3,A
        MOV     DPL,?V0 + 2
        MOV     DPH,A
        MOV     R0,#?V0 + 4
        LCALL   ?L_MOV_X
        MOV     A,?V0 + 4
        ORL     A,?V0 + 5
        ORL     A,?V0 + 6
        ORL     A,?V0 + 7
        JZ      ??osalTimerUpdate_8
        MOV     DPL,R6
        MOV     DPH,R7
        INC     DPTR
        INC     DPTR
        INC     DPTR
        INC     DPTR
        INC     DPTR
        INC     DPTR
        MOVX    A,@DPTR
        MOV     R2,A
        INC     DPTR
        MOVX    A,@DPTR
        MOV     R3,A
        MOV     A,R2
        ORL     A,R3
        JZ      ??osalTimerUpdate_8
//  475 
//  476       // Check for reloading
//  477       if ( (srchTimer->timeout.time16[0] == 0) && (srchTimer->timeout.time16[1] == 0) &&
//  478            (srchTimer->reloadTimeout) && (srchTimer->event_flag) )
//  479       {
//  480         // Notify the task of a timeout
//  481         osal_set_event( srchTimer->task_id, srchTimer->event_flag );
        ; Setup parameters for call to function osal_set_event
        MOV     DPL,R6
        MOV     DPH,R7
        INC     DPTR
        INC     DPTR
        INC     DPTR
        INC     DPTR
        INC     DPTR
        INC     DPTR
        INC     DPTR
        INC     DPTR
        MOVX    A,@DPTR
        MOV     R1,A
        LCALL   ??osal_set_event?relay
//  482 
//  483         // Reload the timer timeout value
//  484         srchTimer->timeout.time32 = srchTimer->reloadTimeout;
        MOV     DPL,?V0 + 2
        MOV     DPH,?V0 + 3
        LCALL   ?XLOAD_R2345
        MOV     DPL,?V0 + 12
        MOV     DPH,?V0 + 13
        LCALL   ?XSTORE_R2345
//  485       }
//  486 
//  487       // When timeout or delete (event_flag == 0)
//  488       if ( ((srchTimer->timeout.time16[0] == 0) && (srchTimer->timeout.time16[1] == 0)) ||
//  489             (srchTimer->event_flag == 0) )
??osalTimerUpdate_6:
        LCALL   ?Subroutine3 & 0xFFFF
??CrossCallReturnLabel_10:
        JNZ     ??osalTimerUpdate_9
??osalTimerUpdate_7:
        MOV     DPL,?V0 + 10
        MOV     DPH,?V0 + 11
        LCALL   ??Subroutine4_0 & 0xFFFF
??CrossCallReturnLabel_5:
        JZ      ??osalTimerUpdate_8
??osalTimerUpdate_9:
        MOV     DPL,R6
        MOV     DPH,R7
        INC     DPTR
        INC     DPTR
        INC     DPTR
        INC     DPTR
        INC     DPTR
        INC     DPTR
        LCALL   ??Subroutine4_0 & 0xFFFF
??CrossCallReturnLabel_6:
        JNZ     ??osalTimerUpdate_10
//  490       {
//  491         // Take out of list
//  492         if ( prevTimer == NULL )
??osalTimerUpdate_8:
        MOV     DPL,R6
        MOV     DPH,R7
        MOVX    A,@DPTR
        MOV     R0,A
        INC     DPTR
        MOVX    A,@DPTR
        MOV     R1,A
        MOV     A,?V0 + 14
        ORL     A,?V0 + 15
        JNZ     ??osalTimerUpdate_11
//  493         {
//  494           timerHead = srchTimer->next;
        MOV     DPTR,#timerHead
        SJMP    ??osalTimerUpdate_12
//  495         }
//  496         else
//  497         {
//  498           prevTimer->next = srchTimer->next;
??osalTimerUpdate_11:
        MOV     DPL,?V0 + 14
        MOV     DPH,?V0 + 15
??osalTimerUpdate_12:
        MOV     A,R0
        MOVX    @DPTR,A
        INC     DPTR
        MOV     A,R1
        MOVX    @DPTR,A
//  499         }
//  500 
//  501         // Setup to free memory
//  502         freeTimer = srchTimer;
        MOV     ?V0 + 0,R6
        MOV     ?V0 + 1,R7
//  503 
//  504         // Next
//  505         srchTimer = srchTimer->next;
        SJMP    ??osalTimerUpdate_13
//  506       }
//  507       else
//  508       {
//  509         // Get next
//  510         prevTimer = srchTimer;
??osalTimerUpdate_10:
        MOV     ?V0 + 14,R6
        MOV     ?V0 + 15,R7
//  511         srchTimer = srchTimer->next;
??osalTimerUpdate_13:
        MOV     DPL,R6
        MOV     DPH,R7
        MOVX    A,@DPTR
        MOV     R6,A
        INC     DPTR
        MOVX    A,@DPTR
        MOV     R7,A
//  512       }
//  513 
//  514       HAL_EXIT_CRITICAL_SECTION( intState );   // Re-enable interrupts.
        MOV     DPL,?XSP + 0
        MOV     DPH,?XSP + 1
        MOVX    A,@DPTR
        MOV     C,0xE0 /* A   */.0
        MOV     0xa8.7,C
//  515 
//  516       if ( freeTimer )
        MOV     A,?V0 + 0
        ORL     A,?V0 + 1
        JZ      ??osalTimerUpdate_14
//  517       {
//  518         if ( (freeTimer->timeout.time16[0] == 0) && (freeTimer->timeout.time16[1] == 0) )
        MOV     DPL,?V0 + 0
        MOV     DPH,?V0 + 1
        INC     DPTR
        INC     DPTR
        LCALL   ??Subroutine4_0 & 0xFFFF
??CrossCallReturnLabel_7:
        JNZ     ??osalTimerUpdate_15
        MOV     DPL,?V0 + 0
        MOV     DPH,?V0 + 1
        INC     DPTR
        INC     DPTR
        INC     DPTR
        INC     DPTR
        LCALL   ??Subroutine4_0 & 0xFFFF
??CrossCallReturnLabel_8:
        JNZ     ??osalTimerUpdate_15
//  519         {
//  520           osal_set_event( freeTimer->task_id, freeTimer->event_flag );
        ; Setup parameters for call to function osal_set_event
        MOV     DPL,?V0 + 0
        MOV     DPH,?V0 + 1
        INC     DPTR
        INC     DPTR
        INC     DPTR
        INC     DPTR
        INC     DPTR
        INC     DPTR
        MOVX    A,@DPTR
        MOV     R2,A
        INC     DPTR
        MOVX    A,@DPTR
        MOV     R3,A
        MOV     DPL,?V0 + 0
        MOV     DPH,?V0 + 1
        INC     DPTR
        INC     DPTR
        INC     DPTR
        INC     DPTR
        INC     DPTR
        INC     DPTR
        INC     DPTR
        INC     DPTR
        MOVX    A,@DPTR
        MOV     R1,A
        LCALL   ??osal_set_event?relay
//  521         }
//  522         osal_mem_free( freeTimer );
??osalTimerUpdate_15:
        ; Setup parameters for call to function osal_mem_free
        MOV     R2,?V0 + 0
        MOV     R3,?V0 + 1
        LCALL   ??osal_mem_free?relay
//  523       }
//  524     }
??osalTimerUpdate_14:
        MOV     A,R6
        ORL     A,R7
        JZ      $+5
        LJMP    ??osalTimerUpdate_1 & 0xFFFF
//  525   }
//  526 }
??osalTimerUpdate_0:
        MOV     A,#0x5
        LCALL   ?DEALLOC_XSTACK8
        MOV     R7,#0x10
        LJMP    ?BANKED_LEAVE_XDATA
        REQUIRE _A_IEN0

        RSEG BANKED_CODE:CODE:NOROOT(0)
?Subroutine3:
        MOV     DPL,?V0 + 8
        MOV     DPH,?V0 + 9
        REQUIRE ??Subroutine4_0
        ; // Fall through to label ??Subroutine4_0

        RSEG BANKED_CODE:CODE:NOROOT(0)
??Subroutine4_0:
        MOVX    A,@DPTR
        MOV     R0,A
        INC     DPTR
        MOVX    A,@DPTR
        MOV     R1,A
        MOV     A,R0
        ORL     A,R1
        RET
//  527 
//  528 #ifdef POWER_SAVING
//  529 /*********************************************************************
//  530  * @fn      osal_adjust_timers
//  531  *
//  532  * @brief   Update the timer structures for elapsed ticks.
//  533  *
//  534  * @param   none
//  535  *
//  536  * @return  none
//  537  *********************************************************************/
//  538 void osal_adjust_timers( void )
//  539 {
//  540   uint32 eTime;
//  541 
//  542   if ( timerHead != NULL )
//  543   {
//  544     // Compute elapsed time (msec)
//  545     eTime = TimerElapsed() / TICK_COUNT;
//  546 
//  547     if ( eTime )
//  548     {
//  549       osalTimerUpdate( eTime );
//  550     }
//  551   }
//  552 }
//  553 
//  554 /*********************************************************************
//  555  * @fn      osal_next_timeout
//  556  *
//  557  * @brief
//  558  *
//  559  *   Search timer table to return the lowest timeout value. If the
//  560  *   timer list is empty, then the returned timeout will be zero.
//  561  *
//  562  * @param   none
//  563  *
//  564  * @return  none
//  565  *********************************************************************/
//  566 uint32 osal_next_timeout( void )
//  567 {
//  568   uint32 nextTimeout;
//  569   osalTimerRec_t *srchTimer;
//  570 
//  571   if ( timerHead != NULL )
//  572   {
//  573     // Head of the timer list
//  574     srchTimer = timerHead;
//  575     nextTimeout = OSAL_TIMERS_MAX_TIMEOUT;
//  576 
//  577     // Look for the next timeout timer
//  578     while ( srchTimer != NULL )
//  579     {
//  580       if (srchTimer->timeout.time32 < nextTimeout)
//  581       {
//  582         nextTimeout = srchTimer->timeout.time32;
//  583       }
//  584       // Check next timer
//  585       srchTimer = srchTimer->next;
//  586     }
//  587   }
//  588   else
//  589   {
//  590     // No timers
//  591     nextTimeout = 0;
//  592   }
//  593 
//  594   return ( nextTimeout );
//  595 }
//  596 #endif // POWER_SAVING
//  597 
//  598 /*********************************************************************
//  599  * @fn      osal_GetSystemClock()
//  600  *
//  601  * @brief   Read the local system clock.
//  602  *
//  603  * @param   none
//  604  *
//  605  * @return  local clock in milliseconds
//  606  */

        RSEG BANKED_CODE:CODE:NOROOT(0)
//  607 uint32 osal_GetSystemClock( void )
osal_GetSystemClock:
        CODE
//  608 {
        PUSH    DPL
        PUSH    DPH
        ; Saved register size: 2
        ; Auto size: 0
//  609   return ( osal_systemClock );
        MOV     DPTR,#osal_systemClock
        LCALL   ?XLOAD_R2345
        LJMP    ?Subroutine0 & 0xFFFF
//  610 }

        RSEG BANK_RELAYS:CODE:REORDER:NOROOT(0)
??osalTimerInit?relay:
        CODE
        LCALL   ?BDISPATCH
        DATA24
        DC24    osalTimerInit

        RSEG BANK_RELAYS:CODE:REORDER:NOROOT(0)
??osalAddTimer?relay:
        CODE
        LCALL   ?BDISPATCH
        DATA24
        DC24    osalAddTimer

        RSEG BANK_RELAYS:CODE:REORDER:NOROOT(0)
??osalFindTimer?relay:
        CODE
        LCALL   ?BDISPATCH
        DATA24
        DC24    osalFindTimer

        RSEG BANK_RELAYS:CODE:REORDER:NOROOT(0)
??osalDeleteTimer?relay:
        CODE
        LCALL   ?BDISPATCH
        DATA24
        DC24    osalDeleteTimer

        RSEG BANK_RELAYS:CODE:REORDER:NOROOT(0)
??osal_start_timerEx?relay:
        CODE
        LCALL   ?BDISPATCH
        DATA24
        DC24    osal_start_timerEx

        RSEG BANK_RELAYS:CODE:REORDER:NOROOT(0)
??osal_start_reload_timer?relay:
        CODE
        LCALL   ?BDISPATCH
        DATA24
        DC24    osal_start_reload_timer

        RSEG BANK_RELAYS:CODE:REORDER:NOROOT(0)
??osal_stop_timerEx?relay:
        CODE
        LCALL   ?BDISPATCH
        DATA24
        DC24    osal_stop_timerEx

        RSEG BANK_RELAYS:CODE:REORDER:NOROOT(0)
??osal_get_timeoutEx?relay:
        CODE
        LCALL   ?BDISPATCH
        DATA24
        DC24    osal_get_timeoutEx

        RSEG BANK_RELAYS:CODE:REORDER:NOROOT(0)
??osal_timer_num_active?relay:
        CODE
        LCALL   ?BDISPATCH
        DATA24
        DC24    osal_timer_num_active

        RSEG BANK_RELAYS:CODE:REORDER:NOROOT(0)
??osalTimerUpdate?relay:
        CODE
        LCALL   ?BDISPATCH
        DATA24
        DC24    osalTimerUpdate

        RSEG BANK_RELAYS:CODE:REORDER:NOROOT(0)
??osal_GetSystemClock?relay:
        CODE
        LCALL   ?BDISPATCH
        DATA24
        DC24    osal_GetSystemClock

        END
//  611 
//  612 /*********************************************************************
//  613 *********************************************************************/
// 
// 1 116 bytes in segment BANKED_CODE
//    66 bytes in segment BANK_RELAYS
//     1 byte  in segment SFR_AN
//     6 bytes in segment XDATA_Z
// 
// 1 182 bytes of CODE  memory
//     0 bytes of DATA  memory (+ 1 byte shared)
//     6 bytes of XDATA memory
//
//Errors: none
//Warnings: none
